(dp1
I131072
I180
sI131073
I181
sI131074
I182
sI131075
I183
sI131076
I184
sI131077
I185
sI131078
I186
sI131079
I187
sI131081
I188
sI131082
I189
sI131083
I190
sI131084
I191
sI131085
I192
sI131086
I193
sI131087
I194
sI131088
I195
sI131089
I196
sI131090
I197
sI131091
I198
sI131093
I199
sI131095
I200
sI131096
I201
sI131097
I202
sI131098
I203
sI131099
I204
sI131101
I205
sI131103
I206
sI131104
I207
sI131105
I208
sI131106
I209
sI131107
I210
sI131108
I211
sI131109
I212
sI131110
I213
sI131111
I214
sI131112
I215
sI131113
I216
sI131114
I217
sI131115
I218
sI131116
I219
sI131117
I220
sI131118
I221
sI131119
I222
sI131120
I223
sI131121
I224
sI131122
I225
sI131123
I226
sI131124
I227
sI131126
I228
sI131128
I229
sI131129
I230
sI131130
I231
sI131131
I232
sI131132
I233
sI131133
I234
sI131134
I235
sI131135
I236
sI131136
I237
sI131138
I238
sI131139
I239
sI131140
I240
sI131141
I241
sI131142
I242
sI131144
I243
sI131145
I244
sI131146
I245
sI131147
I246
sI131148
I247
sI131149
I248
sI131150
I249
sI131151
I250
sI131152
I251
sI131153
I252
sI131154
I253
sI131155
I254
sI131156
I255
sI131157
I256
sI131158
I257
sI131159
I258
sI131160
I259
sI131161
I260
sI131162
I261
sI131163
I262
sI131164
I263
sI131165
I264
sI131166
I265
sI131168
I266
sI131170
I267
sI131171
I268
sI131172
I269
sI131173
I270
sI131174
I271
sI131175
I272
sI131177
I273
sI131178
I274
sI131179
I275
sI131180
I276
sI131181
I277
sI131182
I278
sI131183
I279
sI131184
I280
sI131185
I281
sI131186
I282
sI131187
I283
sI131188
I284
sI131190
I285
sI131191
I286
sI131192
I287
sI131193
I288
sI131194
I289
sI131195
I290
sI131196
I291
sI131197
I292
sI131198
I293
sI131199
I294
sI131200
I295
sI131201
I296
sI131202
I297
sI131203
I298
sI131204
I299
sI131205
I300
sI131206
I301
sI131207
I302
sI131208
I303
sI131209
I304
sI131210
I305
sI131211
I306
sI131212
I307
sI131214
I308
sI131217
I309
sI131220
I310
sI131221
I311
sI131222
I312
sI131223
I313
sI131225
I314
sI131226
I315
sI131227
I316
sI131228
I317
sI131229
I318
sI131230
I319
sI131231
I320
sI131232
I321
sI131233
I322
sI131234
I323
sI131235
I324
sI131236
I325
sI131237
I326
sI131238
I327
sI131239
I328
sI131240
I329
sI131241
I330
sI131243
I331
sI131244
I332
sI131245
I333
sI131246
I334
sI131247
I335
sI131248
I336
sI131249
I337
sI131250
I338
sI131252
I339
sI131255
I340
sI131256
I341
sI131257
I342
sI131258
I343
sI131260
I344
sI131261
I345
sI131263
I346
sI131264
I347
sI131265
I348
sI131266
I349
sI131267
I350
sI131268
I351
sI131269
I352
sI131270
I353
sI131271
I354
sI131272
I355
sI131273
I356
sI131274
I357
sI131275
I358
sI131277
I359
sI131278
I360
sI131279
I361
sI131280
I362
sI131281
I363
sI131282
I364
sI131283
I365
sI131284
I366
sI131285
I367
sI131286
I368
sI131288
I369
sI131289
I370
sI131290
I371
sI131291
I372
sI131292
I373
sI131293
I374
sI131294
I375
sI131295
I376
sI131296
I377
sI131297
I378
sI131298
I379
sI131299
I380
sI131301
I381
sI131302
I382
sI131303
I383
sI131304
I384
sI131305
I385
sI131306
I386
sI131307
I387
sI131308
I388
sI131309
I389
sI131310
I390
sI131311
I391
sI131313
I392
sI131314
I393
sI131315
I394
sI131316
I395
sI131317
I396
sI131318
I397
sI131319
I398
sI131320
I399
sI131321
I400
sI131323
I401
sI131324
I402
sI131325
I403
sI131326
I404
sI131327
I405
sI131329
I406
sI131330
I407
sI131331
I408
sI131332
I409
sI131333
I410
sI131334
I411
sI131335
I412
sI131336
I413
sI131337
I414
sI131338
I415
sI131339
I416
sI131340
I417
sI131341
I418
sI131342
I419
sI131343
I420
sI131345
I421
sI131346
I422
sI131347
I423
sI131348
I424
sI131349
I425
sI131350
I426
sI131351
I427
sI131353
I428
sI131354
I429
sI131356
I430
sI131358
I431
sI131359
I432
sI131361
I433
sI131362
I434
sI131363
I435
sI131364
I436
sI131365
I437
sI131366
I438
sI131367
I439
sI131368
I440
sI131369
I441
sI131370
I442
sI131371
I443
sI131373
I444
sI131375
I445
sI131376
I446
sI131377
I447
sI131378
I448
sI131380
I449
sI131381
I450
sI131382
I451
sI131383
I452
sI131384
I453
sI131385
I454
sI131387
I455
sI131388
I456
sI131389
I457
sI131390
I458
sI131391
I459
sI131392
I460
sI131394
I461
sI131395
I462
sI131397
I463
sI131398
I464
sI131399
I465
sI131400
I466
sI131401
I467
sI131402
I468
sI131403
I469
sI131404
I470
sI131405
I471
sI131406
I472
sI131407
I473
sI131408
I474
sI131409
I475
sI131410
I476
sI131411
I477
sI131413
I478
sI131414
I479
sI131415
I480
sI131416
I481
sI131417
I482
sI131418
I483
sI131419
I484
sI131420
I485
sI131421
I486
sI131422
I487
sI131423
I488
sI131424
I489
sI131425
I490
sI131426
I491
sI131427
I492
sI131428
I493
sI131429
I494
sI131430
I495
sI131432
I496
sI131433
I497
sI131434
I498
sI131435
I499
sI131437
I500
sI131438
I501
sI131439
I502
sI131440
I503
sI131441
I504
sI131442
I505
sI131444
I506
sI131445
I507
sI131446
I508
sI131447
I509
sI131448
I510
sI131449
I511
sI131450
I512
sI131451
I513
sI131452
I514
sI131453
I515
sI131455
I516
sI131456
I517
sI131457
I518
sI131458
I519
sI131459
I520
sI131461
I521
sI131462
I522
sI131463
I523
sI131464
I524
sI131466
I525
sI131467
I526
sI131468
I527
sI131469
I528
sI131470
I529
sI131471
I530
sI131472
I531
sI131473
I532
sI131474
I533
sI131475
I534
sI131476
I535
sI131477
I536
sI131478
I537
sI131479
I538
sI131480
I539
sI131481
I540
sI131482
I541
sI131483
I542
sI131484
I543
sI131485
I544
sI131486
I545
sI131487
I546
sI131488
I547
sI131490
I548
sI131492
I549
sI131493
I550
sI131494
I551
sI131496
I552
sI131497
I553
sI131498
I554
sI131499
I555
sI131500
I556
sI131501
I557
sI131502
I558
sI131504
I559
sI131505
I560
sI131506
I561
sI131507
I562
sI131508
I563
sI131509
I564
sI131511
I565
sI131512
I566
sI131513
I567
sI131514
I568
sI131515
I569
sI131518
I570
sI131519
I571
sI131520
I572
sI131521
I573
sI131522
I574
sI131523
I575
sI131524
I576
sI131525
I577
sI131526
I578
sI131527
I579
sI131528
I580
sI131529
I581
sI131530
I582
sI131531
I583
sI131532
I584
sI131533
I585
sI131535
I586
sI131536
I587
sI131537
I588
sI131538
I589
sI131539
I590
sI131540
I591
sI131541
I592
sI131544
I593
sI131545
I594
sI131546
I595
sI131547
I596
sI131548
I597
sI131549
I598
sI131550
I599
sI131551
I600
sI131552
I601
sI131553
I602
sI131554
I603
sI131555
I604
sI131556
I605
sI131557
I606
sI131558
I607
sI131559
I608
sI131560
I609
sI131561
I610
sI131562
I611
sI131563
I612
sI131564
I613
sI131565
I614
sI131566
I615
sI131567
I616
sI131568
I617
sI131569
I618
sI131570
I619
sI131571
I620
sI131572
I621
sI131574
I622
sI131575
I623
sI131576
I624
sI131577
I625
sI131578
I626
sI131579
I627
sI131580
I628
sI131581
I629
sI131582
I630
sI131583
I631
sI131584
I632
sI131585
I633
sI131586
I634
sI131587
I635
sI131589
I636
sI131590
I637
sI131591
I638
sI131592
I639
sI131593
I640
sI131594
I641
sI131595
I642
sI131596
I643
sI131597
I644
sI131598
I645
sI131599
I646
sI131600
I647
sI131601
I648
sI131602
I649
sI131604
I650
sI131605
I651
sI131607
I652
sI131608
I653
sI131609
I654
sI131610
I655
sI131611
I656
sI131612
I657
sI131613
I658
sI131614
I659
sI131616
I660
sI131617
I661
sI131618
I662
sI131619
I663
sI131620
I664
sI131621
I665
sI131622
I666
sI131623
I667
sI131624
I668
sI131625
I669
sI131626
I670
sI131627
I671
sI131628
I672
sI131629
I673
sI131630
I674
sI131631
I675
sI131632
I676
sI131633
I677
sI131634
I678
sI131635
I679
sI131636
I680
sI131637
I681
sI131639
I682
sI131640
I683
sI131642
I684
sI131643
I685
sI131644
I686
sI131645
I687
sI131646
I688
sI131647
I689
sI131648
I690
sI131649
I691
sI131650
I692
sI131651
I693
sI131652
I694
sI131653
I695
sI131654
I696
sI131656
I697
sI131657
I698
sI131658
I699
sI131659
I700
sI131660
I701
sI131661
I702
sI131662
I703
sI131663
I704
sI131664
I705
sI131665
I706
sI131666
I707
sI131667
I708
sI131668
I709
sI131670
I710
sI131671
I711
sI131673
I712
sI131675
I713
sI131678
I714
sI131679
I715
sI131680
I716
sI131681
I717
sI131682
I718
sI131683
I719
sI131684
I720
sI131685
I721
sI131686
I722
sI131687
I723
sI131688
I724
sI131689
I725
sI131690
I726
sI131691
I727
sI131692
I728
sI131694
I729
sI131695
I730
sI131696
I731
sI131700
I732
sI131701
I733
sI131702
I734
sI131703
I735
sI131704
I736
sI131707
I737
sI131708
I738
sI131710
I739
sI131711
I740
sI131712
I741
sI131713
I742
sI131714
I743
sI131715
I744
sI131716
I745
sI131717
I746
sI131719
I747
sI131720
I748
sI131721
I749
sI131722
I750
sI131723
I751
sI131724
I752
sI131725
I753
sI131726
I754
sI131727
I755
sI131728
I756
sI131729
I757
sI131730
I758
sI131731
I759
sI131732
I760
sI131733
I761
sI131734
I762
sI131735
I763
sI131736
I764
sI131737
I765
sI131738
I766
sI131739
I767
sI131740
I768
sI131741
I769
sI131742
I770
sI131743
I771
sI131744
I772
sI131745
I773
sI131746
I774
sI131747
I775
sI131748
I776
sI131750
I777
sI131751
I778
sI131752
I779
sI131753
I780
sI131754
I781
sI131755
I782
sI131756
I783
sI131757
I784
sI131758
I785
sI131759
I786
sI131760
I787
sI131761
I788
sI131762
I789
sI131764
I790
sI131766
I791
sI131767
I792
sI131768
I793
sI131769
I794
sI131770
I795
sI131772
I796
sI131773
I797
sI131774
I798
sI131775
I799
sI131776
I800
sI131777
I801
sI131778
I802
sI131779
I803
sI131780
I804
sI131781
I805
sI131783
I806
sI131784
I807
sI131785
I808
sI131786
I809
sI131787
I810
sI131788
I811
sI131789
I812
sI131790
I813
sI131791
I814
sI131792
I815
sI131793
I816
sI131794
I817
sI131795
I818
sI131796
I819
sI131797
I820
sI131798
I821
sI131799
I822
sI131800
I823
sI131801
I824
sI131803
I825
sI131804
I826
sI131805
I827
sI131806
I828
sI131807
I829
sI131809
I830
sI131811
I831
sI131814
I832
sI131815
I833
sI131816
I834
sI131817
I835
sI131818
I836
sI131819
I837
sI131820
I838
sI131821
I839
sI131822
I840
sI131823
I841
sI131824
I842
sI131826
I843
sI131827
I844
sI131828
I845
sI131829
I846
sI131830
I847
sI131831
I848
sI131832
I849
sI131833
I850
sI131834
I851
sI131835
I852
sI131836
I853
sI131837
I854
sI131838
I855
sI131839
I856
sI131840
I857
sI131841
I858
sI131844
I859
sI131845
I860
sI131846
I861
sI131847
I862
sI131848
I863
sI131849
I864
sI131851
I865
sI131852
I866
sI131853
I867
sI131854
I868
sI131855
I869
sI131857
I870
sI131858
I871
sI131860
I872
sI131861
I873
sI131862
I874
sI131863
I875
sI131865
I876
sI131866
I877
sI131867
I878
sI131868
I879
sI131869
I880
sI131870
I881
sI131871
I882
sI131872
I883
sI131873
I884
sI131874
I885
sI131876
I886
sI131877
I887
sI131878
I888
sI131881
I889
sI131883
I890
sI131884
I891
sI131885
I892
sI131886
I893
sI131887
I894
sI131888
I895
sI131889
I896
sI131891
I897
sI131892
I898
sI131893
I899
sI131894
I900
sI131895
I901
sI131896
I902
sI131897
I903
sI131898
I904
sI131899
I905
sI131900
I906
sI131902
I907
sI131903
I908
sI131904
I909
sI131906
I910
sI131908
I911
sI131909
I912
sI131910
I913
sI131911
I914
sI131912
I915
sI131913
I916
sI131914
I917
sI131915
I918
sI131916
I919
sI131917
I920
sI131918
I921
sI131919
I922
sI131920
I923
sI131921
I924
sI131923
I925
sI131924
I926
sI131925
I927
sI131926
I928
sI131927
I929
sI131928
I930
sI131930
I931
sI131931
I932
sI131932
I933
sI131933
I934
sI131935
I935
sI131936
I936
sI131938
I937
sI131939
I938
sI131940
I939
sI131942
I940
sI131943
I941
sI131944
I942
sI131945
I943
sI131946
I944
sI131947
I945
sI131948
I946
sI131949
I947
sI131950
I948
sI131951
I949
sI131952
I950
sI131953
I951
sI131954
I952
sI131956
I953
sI131957
I954
sI131958
I955
sI131959
I956
sI131960
I957
sI131961
I958
sI131962
I959
sI131963
I960
sI131964
I961
sI131965
I962
sI131966
I963
sI131967
I964
sI131968
I965
sI131969
I966
sI131971
I967
sI131972
I968
sI131973
I969
sI131974
I970
sI131976
I971
sI131977
I972
sI131978
I973
sI131979
I974
sI131980
I975
sI131981
I976
sI131982
I977
sI131983
I978
sI131984
I979
sI131985
I980
sI131986
I981
sI131987
I982
sI131989
I983
sI131991
I984
sI131992
I985
sI131993
I986
sI131994
I987
sI131995
I988
sI131996
I989
sI131997
I990
sI131998
I991
sI131999
I992
sI132000
I993
sI132001
I994
sI132002
I995
sI132004
I996
sI132005
I997
sI132006
I998
sI132007
I999
sI132008
I1000
sI132010
I1001
sI132011
I1002
sI132012
I1003
sI132013
I1004
sI132016
I1005
sI132017
I1006
sI132018
I1007
sI132019
I1008
sI132021
I1009
sI132022
I1010
sI132023
I1011
sI132024
I1012
sI132025
I1013
sI132026
I1014
sI132027
I1015
sI132029
I1016
sI132030
I1017
sI132031
I1018
sI132032
I1019
sI132033
I1020
sI132034
I1021
sI132035
I1022
sI132037
I1023
sI132038
I1024
sI132039
I1025
sI132040
I1026
sI132041
I1027
sI132042
I1028
sI132043
I1029
sI132044
I1030
sI132045
I1031
sI132046
I1032
sI132047
I1033
sI132049
I1034
sI132050
I1035
sI132051
I1036
sI132052
I1037
sI132054
I1038
sI132055
I1039
sI132056
I1040
sI132058
I1041
sI132059
I1042
sI132060
I1043
sI132061
I1044
sI132063
I1045
sI132064
I1046
sI132066
I1047
sI132067
I1048
sI132069
I1049
sI132070
I1050
sI132071
I1051
sI132072
I1052
sI132073
I1053
sI132074
I1054
sI132075
I1055
sI132076
I1056
sI132077
I1057
sI132078
I1058
sI132079
I1059
sI132081
I1060
sI132082
I1061
sI132083
I1062
sI132084
I1063
sI132085
I1064
sI132086
I1065
sI132087
I1066
sI132089
I1067
sI132090
I1068
sI132091
I1069
sI132092
I1070
sI132093
I1071
sI132094
I1072
sI132095
I1073
sI132096
I1074
sI132098
I1075
sI132099
I1076
sI132100
I1077
sI132101
I1078
sI132103
I1079
sI132104
I1080
sI132105
I1081
sI132106
I1082
sI132107
I1083
sI132108
I1084
sI132112
I1085
sI132113
I1086
sI132114
I1087
sI132115
I1088
sI132116
I1089
sI132117
I1090
sI132118
I1091
sI132119
I1092
sI132121
I1093
sI132122
I1094
sI132123
I1095
sI132124
I1096
sI132126
I1097
sI132127
I1098
sI132128
I1099
sI132129
I1100
sI132130
I1101
sI132131
I1102
sI132133
I1103
sI132134
I1104
sI132135
I1105
sI132136
I1106
sI132137
I1107
sI132138
I1108
sI132139
I1109
sI132140
I1110
sI132141
I1111
sI132142
I1112
sI132143
I1113
sI132144
I1114
sI132145
I1115
sI132147
I1116
sI132148
I1117
sI132151
I1118
sI132152
I1119
sI132153
I1120
sI132154
I1121
sI132156
I1122
sI132157
I1123
sI132158
I1124
sI132159
I1125
sI132160
I1126
sI132161
I1127
sI132162
I1128
sI132163
I1129
sI132164
I1130
sI132165
I1131
sI132167
I1132
sI132168
I1133
sI132169
I1134
sI132170
I1135
sI132171
I1136
sI132172
I1137
sI132173
I1138
sI132174
I1139
sI132175
I1140
sI132176
I1141
sI132177
I1142
sI132178
I1143
sI132179
I1144
sI132180
I1145
sI132182
I1146
sI132183
I1147
sI132184
I1148
sI132185
I1149
sI132186
I1150
sI132187
I1151
sI132188
I1152
sI132189
I1153
sI132192
I1154
sI132193
I1155
sI132194
I1156
sI132195
I1157
sI132196
I1158
sI132197
I1159
sI132198
I1160
sI132199
I1161
sI132200
I1162
sI132201
I1163
sI132202
I1164
sI132203
I1165
sI132204
I1166
sI132206
I1167
sI132207
I1168
sI132208
I1169
sI132210
I1170
sI132211
I1171
sI132212
I1172
sI132213
I1173
sI132215
I1174
sI132216
I1175
sI132217
I1176
sI132218
I1177
sI132219
I1178
sI132220
I1179
sI132221
I1180
sI132222
I1181
sI132223
I1182
sI132224
I1183
sI132225
I1184
sI132226
I1185
sI132227
I1186
sI132228
I1187
sI132229
I1188
sI132230
I1189
sI132231
I1190
sI132232
I1191
sI132233
I1192
sI132234
I1193
sI132235
I1194
sI132236
I1195
sI132237
I1196
sI132239
I1197
sI132240
I1198
sI132241
I1199
sI132243
I1200
sI132244
I1201
sI132247
I1202
sI132248
I1203
sI132249
I1204
sI132250
I1205
sI132252
I1206
sI132253
I1207
sI132254
I1208
sI132255
I1209
sI132257
I1210
sI132258
I1211
sI132259
I1212
sI132260
I1213
sI132261
I1214
sI132263
I1215
sI132264
I1216
sI132265
I1217
sI132266
I1218
sI132268
I1219
sI132271
I1220
sI132272
I1221
sI132274
I1222
sI132275
I1223
sI132276
I1224
sI132277
I1225
sI132278
I1226
sI132280
I1227
sI132281
I1228
sI132282
I1229
sI132283
I1230
sI132284
I1231
sI132285
I1232
sI132286
I1233
sI132287
I1234
sI132288
I1235
sI132290
I1236
sI132291
I1237
sI132292
I1238
sI132293
I1239
sI132294
I1240
sI132295
I1241
sI132296
I1242
sI132297
I1243
sI132298
I1244
sI132299
I1245
sI132300
I1246
sI132301
I1247
sI132303
I1248
sI132304
I1249
sI132305
I1250
sI132306
I1251
sI132307
I1252
sI132308
I1253
sI132309
I1254
sI132310
I1255
sI132311
I1256
sI132313
I1257
sI132314
I1258
sI132315
I1259
sI132317
I1260
sI132318
I1261
sI132319
I1262
sI132320
I1263
sI132321
I1264
sI132322
I1265
sI132323
I1266
sI132324
I1267
sI132325
I1268
sI132327
I1269
sI132328
I1270
sI132329
I1271
sI132330
I1272
sI132331
I1273
sI132333
I1274
sI132334
I1275
sI132335
I1276
sI132336
I1277
sI132337
I1278
sI132338
I1279
sI132339
I1280
sI132341
I1281
sI132342
I1282
sI132343
I1283
sI132344
I1284
sI132345
I1285
sI132347
I1286
sI132348
I1287
sI132349
I1288
sI132350
I1289
sI132351
I1290
sI132352
I1291
sI132353
I1292
sI132354
I1293
sI132355
I1294
sI132356
I1295
sI132357
I1296
sI132358
I1297
sI132359
I1298
sI132360
I1299
sI132361
I1300
sI132362
I1301
sI132363
I1302
sI132364
I1303
sI132365
I1304
sI132366
I1305
sI132367
I1306
sI132369
I1307
sI132370
I1308
sI132371
I1309
sI132372
I1310
sI132373
I1311
sI132375
I1312
sI132376
I1313
sI132379
I1314
sI132382
I1315
sI132384
I1316
sI132385
I1317
sI132386
I1318
sI132388
I1319
sI132389
I1320
sI132390
I1321
sI132392
I1322
sI132394
I1323
sI132395
I1324
sI132396
I1325
sI132397
I1326
sI132398
I1327
sI132400
I1328
sI132401
I1329
sI132402
I1330
sI132403
I1331
sI132404
I1332
sI132407
I1333
sI132408
I1334
sI132409
I1335
sI132410
I1336
sI132411
I1337
sI132412
I1338
sI132413
I1339
sI132414
I1340
sI132417
I1341
sI132418
I1342
sI132419
I1343
sI132420
I1344
sI132421
I1345
sI132422
I1346
sI132423
I1347
sI132425
I1348
sI132426
I1349
sI132428
I1350
sI132430
I1351
sI132432
I1352
sI132433
I1353
sI132434
I1354
sI132435
I1355
sI132437
I1356
sI132438
I1357
sI132439
I1358
sI132440
I1359
sI132442
I1360
sI132444
I1361
sI132445
I1362
sI132446
I1363
sI132447
I1364
sI132448
I1365
sI132450
I1366
sI132451
I1367
sI132452
I1368
sI132453
I1369
sI132454
I1370
sI132455
I1371
sI132457
I1372
sI132458
I1373
sI132461
I1374
sI132462
I1375
sI132463
I1376
sI132464
I1377
sI132465
I1378
sI132467
I1379
sI132468
I1380
sI132470
I1381
sI132471
I1382
sI132472
I1383
sI132473
I1384
sI132474
I1385
sI132475
I1386
sI132476
I1387
sI132477
I1388
sI132478
I1389
sI132480
I1390
sI132481
I1391
sI132483
I1392
sI132484
I1393
sI132485
I1394
sI132486
I1395
sI132487
I1396
sI132490
I1397
sI132491
I1398
sI132492
I1399
sI132493
I1400
sI132494
I1401
sI132495
I1402
sI132496
I1403
sI132497
I1404
sI132498
I1405
sI132499
I1406
sI132500
I1407
sI132502
I1408
sI132503
I1409
sI132504
I1410
sI132505
I1411
sI132506
I1412
sI132507
I1413
sI132508
I1414
sI132509
I1415
sI132510
I1416
sI132511
I1417
sI132513
I1418
sI132514
I1419
sI132515
I1420
sI132516
I1421
sI132517
I1422
sI132518
I1423
sI132519
I1424
sI132520
I1425
sI132521
I1426
sI132522
I1427
sI132523
I1428
sI132524
I1429
sI132525
I1430
sI132526
I1431
sI132527
I1432
sI132528
I1433
sI132529
I1434
sI132530
I1435
sI132531
I1436
sI132532
I1437
sI132533
I1438
sI132534
I1439
sI132536
I1440
sI132537
I1441
sI132538
I1442
sI132539
I1443
sI132540
I1444
sI132541
I1445
sI132543
I1446
sI132544
I1447
sI132546
I1448
sI132548
I1449
sI132549
I1450
sI132550
I1451
sI132551
I1452
sI132552
I1453
sI132553
I1454
sI132554
I1455
sI132555
I1456
sI132557
I1457
sI132558
I1458
sI132559
I1459
sI132560
I1460
sI132561
I1461
sI132562
I1462
sI132563
I1463
sI132564
I1464
sI132565
I1465
sI132566
I1466
sI132568
I1467
sI132569
I1468
sI132570
I1469
sI132571
I1470
sI132572
I1471
sI132573
I1472
sI132574
I1473
sI132575
I1474
sI132577
I1475
sI132578
I1476
sI132579
I1477
sI132580
I1478
sI132581
I1479
sI132583
I1480
sI132584
I1481
sI132587
I1482
sI132588
I1483
sI132589
I1484
sI132590
I1485
sI132591
I1486
sI132593
I1487
sI132595
I1488
sI132596
I1489
sI132597
I1490
sI132598
I1491
sI132599
I1492
sI132600
I1493
sI132601
I1494
sI132602
I1495
sI132603
I1496
sI132604
I1497
sI132605
I1498
sI132606
I1499
sI132607
I1500
sI132608
I1501
sI132609
I1502
sI132610
I1503
sI132611
I1504
sI132613
I1505
sI132614
I1506
sI132615
I1507
sI132617
I1508
sI132618
I1509
sI132619
I1510
sI132620
I1511
sI132622
I1512
sI132623
I1513
sI132624
I1514
sI132625
I1515
sI132626
I1516
sI132627
I1517
sI132628
I1518
sI132629
I1519
sI132630
I1520
sI132631
I1521
sI132632
I1522
sI132633
I1523
sI132634
I1524
sI132636
I1525
sI132637
I1526
sI132638
I1527
sI132639
I1528
sI132640
I1529
sI132641
I1530
sI132642
I1531
sI132643
I1532
sI132644
I1533
sI132645
I1534
sI132646
I1535
sI132647
I1536
sI132648
I1537
sI132649
I1538
sI132650
I1539
sI132652
I1540
sI132653
I1541
sI132655
I1542
sI132656
I1543
sI132657
I1544
sI132658
I1545
sI132659
I1546
sI132660
I1547
sI132661
I1548
sI132662
I1549
sI132663
I1550
sI132664
I1551
sI132665
I1552
sI132666
I1553
sI132667
I1554
sI132668
I1555
sI132669
I1556
sI132670
I1557
sI132671
I1558
sI132672
I1559
sI132673
I1560
sI132674
I1561
sI132676
I1562
sI132677
I1563
sI132678
I1564
sI132679
I1565
sI132680
I1566
sI132681
I1567
sI132682
I1568
sI132683
I1569
sI132684
I1570
sI132685
I1571
sI132686
I1572
sI132687
I1573
sI132688
I1574
sI132689
I1575
sI132690
I1576
sI132691
I1577
sI132692
I1578
sI132693
I1579
sI132694
I1580
sI132695
I1581
sI132696
I1582
sI132697
I1583
sI132698
I1584
sI132699
I1585
sI132700
I1586
sI132701
I1587
sI132703
I1588
sI132704
I1589
sI132706
I1590
sI132708
I1591
sI132709
I1592
sI132710
I1593
sI132711
I1594
sI132712
I1595
sI132713
I1596
sI132714
I1597
sI132715
I1598
sI132716
I1599
sI132717
I1600
sI132718
I1601
sI132719
I1602
sI132720
I1603
sI132721
I1604
sI132722
I1605
sI132724
I1606
sI132725
I1607
sI132727
I1608
sI132728
I1609
sI132729
I1610
sI132730
I1611
sI132732
I1612
sI132733
I1613
sI132734
I1614
sI132735
I1615
sI132736
I1616
sI132737
I1617
sI132738
I1618
sI132739
I1619
sI132740
I1620
sI132741
I1621
sI132742
I1622
sI132743
I1623
sI132744
I1624
sI132745
I1625
sI132746
I1626
sI132747
I1627
sI132748
I1628
sI132749
I1629
sI132750
I1630
sI132751
I1631
sI132752
I1632
sI132753
I1633
sI132755
I1634
sI132756
I1635
sI132757
I1636
sI132758
I1637
sI132759
I1638
sI132760
I1639
sI132761
I1640
sI132762
I1641
sI132763
I1642
sI132764
I1643
sI132765
I1644
sI132766
I1645
sI132767
I1646
sI132769
I1647
sI132770
I1648
sI132771
I1649
sI132772
I1650
sI132773
I1651
sI132774
I1652
sI132775
I1653
sI132776
I1654
sI132777
I1655
sI132779
I1656
sI132780
I1657
sI132781
I1658
sI132783
I1659
sI132784
I1660
sI132786
I1661
sI132787
I1662
sI132789
I1663
sI132790
I1664
sI132792
I1665
sI132793
I1666
sI132794
I1667
sI132795
I1668
sI132796
I1669
sI132797
I1670
sI132798
I1671
sI132799
I1672
sI132800
I1673
sI132801
I1674
sI132802
I1675
sI132803
I1676
sI132804
I1677
sI132805
I1678
sI132806
I1679
sI132807
I1680
sI132808
I1681
sI132809
I1682
sI132810
I1683
sI132811
I1684
sI132812
I1685
sI132813
I1686
sI132814
I1687
sI132815
I1688
sI132816
I1689
sI132818
I1690
sI132819
I1691
sI132820
I1692
sI132821
I1693
sI132822
I1694
sI132824
I1695
sI132825
I1696
sI132827
I1697
sI132828
I1698
sI132829
I1699
sI132830
I1700
sI132831
I1701
sI132832
I1702
sI132833
I1703
sI132834
I1704
sI132835
I1705
sI132837
I1706
sI132838
I1707
sI132839
I1708
sI132840
I1709
sI132843
I1710
sI132844
I1711
sI132845
I1712
sI132846
I1713
sI132847
I1714
sI132848
I1715
sI132849
I1716
sI132850
I1717
sI132852
I1718
sI132853
I1719
sI132855
I1720
sI132856
I1721
sI132858
I1722
sI132860
I1723
sI132861
I1724
sI132862
I1725
sI132863
I1726
sI132864
I1727
sI132865
I1728
sI132866
I1729
sI132867
I1730
sI132868
I1731
sI132869
I1732
sI132870
I1733
sI132871
I1734
sI132872
I1735
sI132873
I1736
sI132874
I1737
sI132875
I1738
sI132877
I1739
sI132878
I1740
sI132879
I1741
sI132880
I1742
sI132882
I1743
sI132883
I1744
sI132885
I1745
sI132886
I1746
sI132888
I1747
sI132890
I1748
sI132893
I1749
sI132894
I1750
sI132895
I1751
sI132896
I1752
sI132897
I1753
sI132898
I1754
sI132900
I1755
sI132901
I1756
sI132902
I1757
sI132904
I1758
sI132906
I1759
sI132907
I1760
sI132909
I1761
sI132910
I1762
sI132911
I1763
sI132912
I1764
sI132913
I1765
sI132914
I1766
sI132915
I1767
sI132916
I1768
sI132917
I1769
sI132919
I1770
sI132921
I1771
sI132922
I1772
sI132924
I1773
sI132925
I1774
sI132926
I1775
sI132927
I1776
sI132928
I1777
sI132929
I1778
sI132930
I1779
sI132931
I1780
sI132932
I1781
sI132933
I1782
sI132934
I1783
sI132935
I1784
sI132936
I1785
sI132937
I1786
sI132938
I1787
sI132939
I1788
sI132940
I1789
sI132941
I1790
sI132943
I1791
sI132944
I1792
sI132945
I1793
sI132946
I1794
sI132947
I1795
sI132948
I1796
sI132950
I1797
sI132951
I1798
sI132952
I1799
sI132953
I1800
sI132954
I1801
sI132955
I1802
sI132956
I1803
sI132958
I1804
sI132959
I1805
sI132960
I1806
sI132961
I1807
sI132962
I1808
sI132963
I1809
sI132964
I1810
sI132965
I1811
sI132966
I1812
sI132968
I1813
sI132969
I1814
sI132971
I1815
sI132972
I1816
sI132973
I1817
sI132974
I1818
sI132976
I1819
sI132977
I1820
sI132978
I1821
sI132979
I1822
sI132980
I1823
sI132981
I1824
sI132983
I1825
sI132984
I1826
sI132985
I1827
sI132987
I1828
sI132988
I1829
sI132989
I1830
sI132991
I1831
sI132992
I1832
sI132994
I1833
sI132995
I1834
sI132996
I1835
sI132997
I1836
sI132998
I1837
sI132999
I1838
sI133000
I1839
sI133003
I1840
sI133005
I1841
sI133006
I1842
sI133007
I1843
sI133008
I1844
sI133011
I1845
sI133012
I1846
sI133013
I1847
sI133017
I1848
sI133018
I1849
sI133019
I1850
sI133020
I1851
sI133021
I1852
sI133022
I1853
sI133023
I1854
sI133024
I1855
sI133025
I1856
sI133026
I1857
sI133027
I1858
sI133028
I1859
sI133029
I1860
sI133030
I1861
sI133031
I1862
sI133032
I1863
sI133033
I1864
sI133034
I1865
sI133035
I1866
sI133036
I1867
sI133037
I1868
sI133038
I1869
sI133039
I1870
sI133040
I1871
sI133041
I1872
sI133042
I1873
sI133043
I1874
sI133044
I1875
sI133045
I1876
sI133046
I1877
sI133047
I1878
sI133048
I1879
sI133049
I1880
sI133050
I1881
sI133052
I1882
sI133053
I1883
sI133054
I1884
sI133055
I1885
sI133056
I1886
sI133057
I1887
sI133058
I1888
sI133059
I1889
sI133060
I1890
sI133061
I1891
sI133062
I1892
sI133063
I1893
sI133064
I1894
sI133065
I1895
sI133066
I1896
sI133067
I1897
sI133068
I1898
sI133069
I1899
sI133070
I1900
sI133071
I1901
sI133072
I1902
sI133073
I1903
sI133074
I1904
sI133075
I1905
sI133076
I1906
sI133077
I1907
sI133078
I1908
sI133079
I1909
sI133080
I1910
sI133081
I1911
sI133082
I1912
sI133083
I1913
sI133085
I1914
sI133086
I1915
sI133087
I1916
sI133088
I1917
sI133089
I1918
sI133090
I1919
sI133092
I1920
sI133093
I1921
sI133094
I1922
sI133095
I1923
sI133096
I1924
sI133097
I1925
sI133098
I1926
sI133099
I1927
sI133100
I1928
sI133102
I1929
sI133105
I1930
sI133106
I1931
sI133107
I1932
sI133108
I1933
sI133109
I1934
sI133110
I1935
sI133111
I1936
sI133112
I1937
sI133113
I1938
sI133114
I1939
sI133115
I1940
sI133117
I1941
sI133118
I1942
sI133119
I1943
sI133120
I1944
sI133121
I1945
sI133122
I1946
sI133123
I1947
sI133124
I1948
sI133125
I1949
sI133126
I1950
sI133129
I1951
sI133130
I1952
sI133131
I1953
sI133133
I1954
sI133134
I1955
sI133135
I1956
sI133136
I1957
sI133137
I1958
sI133138
I1959
sI133139
I1960
sI133140
I1961
sI133141
I1962
sI133142
I1963
sI133144
I1964
sI133145
I1965
sI133146
I1966
sI133147
I1967
sI133148
I1968
sI133149
I1969
sI133150
I1970
sI133151
I1971
sI133152
I1972
sI133153
I1973
sI133154
I1974
sI133155
I1975
sI133156
I1976
sI133157
I1977
sI133158
I1978
sI133159
I1979
sI133160
I1980
sI133161
I1981
sI133162
I1982
sI133163
I1983
sI133164
I1984
sI133165
I1985
sI133166
I1986
sI133167
I1987
sI133168
I1988
sI133169
I1989
sI133170
I1990
sI133171
I1991
sI133172
I1992
sI133173
I1993
sI133175
I1994
sI133176
I1995
sI133177
I1996
sI133178
I1997
sI133181
I1998
sI133182
I1999
sI133183
I2000
sI133184
I2001
sI133185
I2002
sI133186
I2003
sI133187
I2004
sI133188
I2005
sI133189
I2006
sI133191
I2007
sI133192
I2008
sI133193
I2009
sI133195
I2010
sI133196
I2011
sI133197
I2012
sI133198
I2013
sI133199
I2014
sI133200
I2015
sI133201
I2016
sI133202
I2017
sI133203
I2018
sI133205
I2019
sI133206
I2020
sI133208
I2021
sI133209
I2022
sI133210
I2023
sI133211
I2024
sI133212
I2025
sI133213
I2026
sI133214
I2027
sI133215
I2028
sI133216
I2029
sI133217
I2030
sI133218
I2031
sI133220
I2032
sI133222
I2033
sI133223
I2034
sI133224
I2035
sI133226
I2036
sI133227
I2037
sI133228
I2038
sI133229
I2039
sI133232
I2040
sI133233
I2041
sI133234
I2042
sI133236
I2043
sI133237
I2044
sI133238
I2045
sI133239
I2046
sI133240
I2047
sI133241
I2048
sI133243
I2049
sI133244
I2050
sI133245
I2051
sI133246
I2052
sI133247
I2053
sI133248
I2054
sI133250
I2055
sI133251
I2056
sI133252
I2057
sI133254
I2058
sI133255
I2059
sI133256
I2060
sI133257
I2061
sI133258
I2062
sI133259
I2063
sI133260
I2064
sI133261
I2065
sI133262
I2066
sI133263
I2067
sI133264
I2068
sI133265
I2069
sI133266
I2070
sI133267
I2071
sI133268
I2072
sI133269
I2073
sI133270
I2074
sI133272
I2075
sI133273
I2076
sI133274
I2077
sI133275
I2078
sI133276
I2079
sI133277
I2080
sI133278
I2081
sI133279
I2082
sI133280
I2083
sI133282
I2084
sI133283
I2085
sI133284
I2086
sI133285
I2087
sI133287
I2088
sI133288
I2089
sI133289
I2090
sI133291
I2091
sI133292
I2092
sI133295
I2093
sI133296
I2094
sI133297
I2095
sI133298
I2096
sI133299
I2097
sI133300
I2098
sI133301
I2099
sI133302
I2100
sI133303
I2101
sI133304
I2102
sI133305
I2103
sI133306
I2104
sI133307
I2105
sI133308
I2106
sI133309
I2107
sI133310
I2108
sI133311
I2109
sI133312
I2110
sI133314
I2111
sI133315
I2112
sI133316
I2113
sI133317
I2114
sI133318
I2115
sI133319
I2116
sI133320
I2117
sI133321
I2118
sI133322
I2119
sI133323
I2120
sI133324
I2121
sI133326
I2122
sI133327
I2123
sI133331
I2124
sI133332
I2125
sI133333
I2126
sI133334
I2127
sI133335
I2128
sI133336
I2129
sI133337
I2130
sI133338
I2131
sI133339
I2132
sI133340
I2133
sI133341
I2134
sI133342
I2135
sI133343
I2136
sI133344
I2137
sI133345
I2138
sI133346
I2139
sI133347
I2140
sI133349
I2141
sI133350
I2142
sI133352
I2143
sI133353
I2144
sI133354
I2145
sI133355
I2146
sI133356
I2147
sI133357
I2148
sI133358
I2149
sI133359
I2150
sI133364
I2151
sI133365
I2152
sI133366
I2153
sI133367
I2154
sI133368
I2155
sI133369
I2156
sI133370
I2157
sI133371
I2158
sI133373
I2159
sI133374
I2160
sI133375
I2161
sI133378
I2162
sI133379
I2163
sI133380
I2164
sI133381
I2165
sI133382
I2166
sI133383
I2167
sI133384
I2168
sI133386
I2169
sI133387
I2170
sI133388
I2171
sI133389
I2172
sI133390
I2173
sI133392
I2174
sI133393
I2175
sI133394
I2176
sI133395
I2177
sI133397
I2178
sI133398
I2179
sI133399
I2180
sI133401
I2181
sI133402
I2182
sI133405
I2183
sI133406
I2184
sI133407
I2185
sI133409
I2186
sI133411
I2187
sI133412
I2188
sI133413
I2189
sI133414
I2190
sI133415
I2191
sI133418
I2192
sI133419
I2193
sI133420
I2194
sI133422
I2195
sI133423
I2196
sI133424
I2197
sI133425
I2198
sI133426
I2199
sI133428
I2200
sI133431
I2201
sI133432
I2202
sI133433
I2203
sI133434
I2204
sI133436
I2205
sI133437
I2206
sI133438
I2207
sI133439
I2208
sI133440
I2209
sI133441
I2210
sI133442
I2211
sI133443
I2212
sI133444
I2213
sI133445
I2214
sI133446
I2215
sI133447
I2216
sI133448
I2217
sI133449
I2218
sI133450
I2219
sI133451
I2220
sI133453
I2221
sI133454
I2222
sI133455
I2223
sI133456
I2224
sI133457
I2225
sI133458
I2226
sI133459
I2227
sI133460
I2228
sI133463
I2229
sI133464
I2230
sI133465
I2231
sI133466
I2232
sI133467
I2233
sI133468
I2234
sI133469
I2235
sI133471
I2236
sI133473
I2237
sI133474
I2238
sI133475
I2239
sI133477
I2240
sI133478
I2241
sI133480
I2242
sI133481
I2243
sI133482
I2244
sI133484
I2245
sI133485
I2246
sI133486
I2247
sI133487
I2248
sI133488
I2249
sI133489
I2250
sI133490
I2251
sI133492
I2252
sI133493
I2253
sI133494
I2254
sI133495
I2255
sI133496
I2256
sI133497
I2257
sI133498
I2258
sI133499
I2259
sI133500
I2260
sI133501
I2261
sI133502
I2262
sI133503
I2263
sI133505
I2264
sI133506
I2265
sI133507
I2266
sI133508
I2267
sI133509
I2268
sI133510
I2269
sI133512
I2270
sI133513
I2271
sI133514
I2272
sI133515
I2273
sI133516
I2274
sI133517
I2275
sI133518
I2276
sI133519
I2277
sI133520
I2278
sI133521
I2279
sI133522
I2280
sI133523
I2281
sI133524
I2282
sI133525
I2283
sI133526
I2284
sI133527
I2285
sI133528
I2286
sI133529
I2287
sI133530
I2288
sI133531
I2289
sI133532
I2290
sI133534
I2291
sI133535
I2292
sI133536
I2293
sI133537
I2294
sI133539
I2295
sI133540
I2296
sI133541
I2297
sI133542
I2298
sI133545
I2299
sI133546
I2300
sI133547
I2301
sI133548
I2302
sI133549
I2303
sI133550
I2304
sI133551
I2305
sI133552
I2306
sI133553
I2307
sI133554
I2308
sI133556
I2309
sI133557
I2310
sI133558
I2311
sI133559
I2312
sI133560
I2313
sI133562
I2314
sI133563
I2315
sI133564
I2316
sI133566
I2317
sI133567
I2318
sI133568
I2319
sI133570
I2320
sI133571
I2321
sI133572
I2322
sI133573
I2323
sI133574
I2324
sI133575
I2325
sI133576
I2326
sI133577
I2327
sI133578
I2328
sI133580
I2329
sI133581
I2330
sI133582
I2331
sI133583
I2332
sI133585
I2333
sI133587
I2334
sI133588
I2335
sI133589
I2336
sI133590
I2337
sI133591
I2338
sI133592
I2339
sI133593
I2340
sI133594
I2341
sI133595
I2342
sI133596
I2343
sI133599
I2344
sI133600
I2345
sI133601
I2346
sI133602
I2347
sI133603
I2348
sI133604
I2349
sI133605
I2350
sI133606
I2351
sI133607
I2352
sI133608
I2353
sI133609
I2354
sI133612
I2355
sI133613
I2356
sI133614
I2357
sI133615
I2358
sI133616
I2359
sI133617
I2360
sI133618
I2361
sI133619
I2362
sI133620
I2363
sI133621
I2364
sI133622
I2365
sI133623
I2366
sI133625
I2367
sI133626
I2368
sI133627
I2369
sI133628
I2370
sI133629
I2371
sI133630
I2372
sI133632
I2373
sI133634
I2374
sI133635
I2375
sI133636
I2376
sI133637
I2377
sI133638
I2378
sI133639
I2379
sI133640
I2380
sI133641
I2381
sI133642
I2382
sI133643
I2383
sI133644
I2384
sI133645
I2385
sI133646
I2386
sI133647
I2387
sI133648
I2388
sI133649
I2389
sI133650
I2390
sI133651
I2391
sI133652
I2392
sI133653
I2393
sI133655
I2394
sI133656
I2395
sI133657
I2396
sI133658
I2397
sI133660
I2398
sI133661
I2399
sI133662
I2400
sI133663
I2401
sI133664
I2402
sI133665
I2403
sI133666
I2404
sI133667
I2405
sI133668
I2406
sI133669
I2407
sI133672
I2408
sI133674
I2409
sI133675
I2410
sI133676
I2411
sI133677
I2412
sI133678
I2413
sI133680
I2414
sI133681
I2415
sI133682
I2416
sI133684
I2417
sI133685
I2418
sI133688
I2419
sI133689
I2420
sI133690
I2421
sI133691
I2422
sI133692
I2423
sI133694
I2424
sI133695
I2425
sI133696
I2426
sI133697
I2427
sI133698
I2428
sI133699
I2429
sI133700
I2430
sI133701
I2431
sI133702
I2432
sI133703
I2433
sI133705
I2434
sI133706
I2435
sI133707
I2436
sI133708
I2437
sI133709
I2438
sI133710
I2439
sI133711
I2440
sI133712
I2441
sI133713
I2442
sI133714
I2443
sI133715
I2444
sI133716
I2445
sI133717
I2446
sI133718
I2447
sI133719
I2448
sI133721
I2449
sI133722
I2450
sI133723
I2451
sI133724
I2452
sI133725
I2453
sI133726
I2454
sI133728
I2455
sI133729
I2456
sI133730
I2457
sI133731
I2458
sI133732
I2459
sI133733
I2460
sI133734
I2461
sI133736
I2462
sI133737
I2463
sI133740
I2464
sI133741
I2465
sI133742
I2466
sI133743
I2467
sI133746
I2468
sI133747
I2469
sI133748
I2470
sI133750
I2471
sI133751
I2472
sI133752
I2473
sI133753
I2474
sI133754
I2475
sI133755
I2476
sI133756
I2477
sI133757
I2478
sI133758
I2479
sI133759
I2480
sI133760
I2481
sI133762
I2482
sI133763
I2483
sI133765
I2484
sI133766
I2485
sI133767
I2486
sI133768
I2487
sI133770
I2488
sI133771
I2489
sI133772
I2490
sI133773
I2491
sI133774
I2492
sI133775
I2493
sI133776
I2494
sI133777
I2495
sI133778
I2496
sI133779
I2497
sI133780
I2498
sI133781
I2499
sI133782
I2500
sI133783
I2501
sI133784
I2502
sI133786
I2503
sI133787
I2504
sI133788
I2505
sI133789
I2506
sI133791
I2507
sI133793
I2508
sI133794
I2509
sI133795
I2510
sI133796
I2511
sI133797
I2512
sI133799
I2513
sI133800
I2514
sI133802
I2515
sI133803
I2516
sI133804
I2517
sI133805
I2518
sI133807
I2519
sI133808
I2520
sI133812
I2521
sI133813
I2522
sI133814
I2523
sI133815
I2524
sI133817
I2525
sI133819
I2526
sI133820
I2527
sI133821
I2528
sI133823
I2529
sI133824
I2530
sI133825
I2531
sI133826
I2532
sI133828
I2533
sI133829
I2534
sI133830
I2535
sI133831
I2536
sI133834
I2537
sI133835
I2538
sI133836
I2539
sI133837
I2540
sI133838
I2541
sI133839
I2542
sI133841
I2543
sI133842
I2544
sI133843
I2545
sI133846
I2546
sI133847
I2547
sI133848
I2548
sI133849
I2549
sI133850
I2550
sI133851
I2551
sI133852
I2552
sI133853
I2553
sI133854
I2554
sI133855
I2555
sI133856
I2556
sI133858
I2557
sI133859
I2558
sI133862
I2559
sI133863
I2560
sI133864
I2561
sI133865
I2562
sI133866
I2563
sI133867
I2564
sI133869
I2565
sI133870
I2566
sI133871
I2567
sI133872
I2568
sI133874
I2569
sI133875
I2570
sI133876
I2571
sI133877
I2572
sI133878
I2573
sI133879
I2574
sI133880
I2575
sI133881
I2576
sI133883
I2577
sI133884
I2578
sI133886
I2579
sI133887
I2580
sI133888
I2581
sI133889
I2582
sI133890
I2583
sI133891
I2584
sI133892
I2585
sI133894
I2586
sI133895
I2587
sI133896
I2588
sI133897
I2589
sI133899
I2590
sI133900
I2591
sI133901
I2592
sI133903
I2593
sI133904
I2594
sI133905
I2595
sI133906
I2596
sI133907
I2597
sI133908
I2598
sI133909
I2599
sI133910
I2600
sI133911
I2601
sI133912
I2602
sI133913
I2603
sI133914
I2604
sI133915
I2605
sI133916
I2606
sI133917
I2607
sI133918
I2608
sI133919
I2609
sI133920
I2610
sI133921
I2611
sI133922
I2612
sI133923
I2613
sI133925
I2614
sI133927
I2615
sI133928
I2616
sI133929
I2617
sI133930
I2618
sI133931
I2619
sI133932
I2620
sI133933
I2621
sI133934
I2622
sI133935
I2623
sI133937
I2624
sI133938
I2625
sI133939
I2626
sI133940
I2627
sI133941
I2628
sI133942
I2629
sI133943
I2630
sI133944
I2631
sI133945
I2632
sI133946
I2633
sI133947
I2634
sI133948
I2635
sI133949
I2636
sI133951
I2637
sI133952
I2638
sI133954
I2639
sI133955
I2640
sI133956
I2641
sI133958
I2642
sI133959
I2643
sI133960
I2644
sI133961
I2645
sI133962
I2646
sI133963
I2647
sI133964
I2648
sI133965
I2649
sI133966
I2650
sI133967
I2651
sI133968
I2652
sI133969
I2653
sI133970
I2654
sI133971
I2655
sI133972
I2656
sI133973
I2657
sI133974
I2658
sI133976
I2659
sI133977
I2660
sI133978
I2661
sI133979
I2662
sI133980
I2663
sI133981
I2664
sI133982
I2665
sI133983
I2666
sI133984
I2667
sI133985
I2668
sI133986
I2669
sI133987
I2670
sI133989
I2671
sI133990
I2672
sI133991
I2673
sI133992
I2674
sI133993
I2675
sI133994
I2676
sI133995
I2677
sI133996
I2678
sI133997
I2679
sI133998
I2680
sI133999
I2681
sI134002
I2682
sI134003
I2683
sI134004
I2684
sI134005
I2685
sI134007
I2686
sI134008
I2687
sI134009
I2688
sI134010
I2689
sI134011
I2690
sI134013
I2691
sI134014
I2692
sI134015
I2693
sI134016
I2694
sI134017
I2695
sI134018
I2696
sI134019
I2697
sI134020
I2698
sI134021
I2699
sI134023
I2700
sI134024
I2701
sI134026
I2702
sI134027
I2703
sI134028
I2704
sI134030
I2705
sI134031
I2706
sI134032
I2707
sI134033
I2708
sI134034
I2709
sI134035
I2710
sI134036
I2711
sI134037
I2712
sI134039
I2713
sI134040
I2714
sI134041
I2715
sI134042
I2716
sI134043
I2717
sI134044
I2718
sI134045
I2719
sI134047
I2720
sI134048
I2721
sI134049
I2722
sI134050
I2723
sI134051
I2724
sI134052
I2725
sI134053
I2726
sI134054
I2727
sI134056
I2728
sI134057
I2729
sI134059
I2730
sI134060
I2731
sI134061
I2732
sI134062
I2733
sI134063
I2734
sI134064
I2735
sI134065
I2736
sI134066
I2737
sI134067
I2738
sI134068
I2739
sI134069
I2740
sI134070
I2741
sI134071
I2742
sI134072
I2743
sI134073
I2744
sI134074
I2745
sI134075
I2746
sI134077
I2747
sI134078
I2748
sI134079
I2749
sI134080
I2750
sI134082
I2751
sI134083
I2752
sI134084
I2753
sI134085
I2754
sI134086
I2755
sI134087
I2756
sI134088
I2757
sI134089
I2758
sI134090
I2759
sI134091
I2760
sI134092
I2761
sI134093
I2762
sI134094
I2763
sI134095
I2764
sI134096
I2765
sI134097
I2766
sI134098
I2767
sI134099
I2768
sI134100
I2769
sI134101
I2770
sI134102
I2771
sI134103
I2772
sI134105
I2773
sI134108
I2774
sI134109
I2775
sI134110
I2776
sI134111
I2777
sI134113
I2778
sI134114
I2779
sI134115
I2780
sI134116
I2781
sI134117
I2782
sI134118
I2783
sI134119
I2784
sI134120
I2785
sI134121
I2786
sI134122
I2787
sI134123
I2788
sI134124
I2789
sI134125
I2790
sI134126
I2791
sI134127
I2792
sI134128
I2793
sI134129
I2794
sI134130
I2795
sI134131
I2796
sI134132
I2797
sI134133
I2798
sI134134
I2799
sI134135
I2800
sI134136
I2801
sI134137
I2802
sI134138
I2803
sI134139
I2804
sI134140
I2805
sI134142
I2806
sI134144
I2807
sI134145
I2808
sI134146
I2809
sI134147
I2810
sI134148
I2811
sI134149
I2812
sI134150
I2813
sI134151
I2814
sI134152
I2815
sI134153
I2816
sI134155
I2817
sI134156
I2818
sI134157
I2819
sI134158
I2820
sI134159
I2821
sI134162
I2822
sI134163
I2823
sI134164
I2824
sI134165
I2825
sI134166
I2826
sI134167
I2827
sI134168
I2828
sI134170
I2829
sI134172
I2830
sI134173
I2831
sI134174
I2832
sI134175
I2833
sI134176
I2834
sI134177
I2835
sI134178
I2836
sI134179
I2837
sI134180
I2838
sI134181
I2839
sI134182
I2840
sI134184
I2841
sI134185
I2842
sI134186
I2843
sI134188
I2844
sI134189
I2845
sI134190
I2846
sI134191
I2847
sI134192
I2848
sI134193
I2849
sI134194
I2850
sI134195
I2851
sI134196
I2852
sI134197
I2853
sI134198
I2854
sI134199
I2855
sI134200
I2856
sI134201
I2857
sI134202
I2858
sI134204
I2859
sI134205
I2860
sI134206
I2861
sI134207
I2862
sI134208
I2863
sI134209
I2864
sI134210
I2865
sI134211
I2866
sI134212
I2867
sI134213
I2868
sI134214
I2869
sI134215
I2870
sI134216
I2871
sI134217
I2872
sI134218
I2873
sI134219
I2874
sI134220
I2875
sI134221
I2876
sI134222
I2877
sI134223
I2878
sI134224
I2879
sI134225
I2880
sI134226
I2881
sI134227
I2882
sI134228
I2883
sI134229
I2884
sI134230
I2885
sI134231
I2886
sI134232
I2887
sI134234
I2888
sI134235
I2889
sI134236
I2890
sI134237
I2891
sI134238
I2892
sI134239
I2893
sI134240
I2894
sI134241
I2895
sI134242
I2896
sI134244
I2897
sI134245
I2898
sI134246
I2899
sI134247
I2900
sI134248
I2901
sI134249
I2902
sI134250
I2903
sI134251
I2904
sI134252
I2905
sI134253
I2906
sI134254
I2907
sI134256
I2908
sI134257
I2909
sI134259
I2910
sI134260
I2911
sI134261
I2912
sI134262
I2913
sI134263
I2914
sI134264
I2915
sI134265
I2916
sI134267
I2917
sI134268
I2918
sI134269
I2919
sI134272
I2920
sI134273
I2921
sI134275
I2922
sI134276
I2923
sI134277
I2924
sI134278
I2925
sI134279
I2926
sI134281
I2927
sI134282
I2928
sI134283
I2929
sI134284
I2930
sI134286
I2931
sI134287
I2932
sI134289
I2933
sI134290
I2934
sI134292
I2935
sI134293
I2936
sI134294
I2937
sI134295
I2938
sI134296
I2939
sI134297
I2940
sI134299
I2941
sI134300
I2942
sI134301
I2943
sI134302
I2944
sI134303
I2945
sI134304
I2946
sI134305
I2947
sI134306
I2948
sI134307
I2949
sI134308
I2950
sI134310
I2951
sI134311
I2952
sI134313
I2953
sI134315
I2954
sI134316
I2955
sI134317
I2956
sI134318
I2957
sI134319
I2958
sI134320
I2959
sI134321
I2960
sI134322
I2961
sI134323
I2962
sI134324
I2963
sI134325
I2964
sI134327
I2965
sI134328
I2966
sI134329
I2967
sI134330
I2968
sI134331
I2969
sI134333
I2970
sI134334
I2971
sI134335
I2972
sI134336
I2973
sI134337
I2974
sI134338
I2975
sI134339
I2976
sI134341
I2977
sI134342
I2978
sI134343
I2979
sI134344
I2980
sI134345
I2981
sI134346
I2982
sI134347
I2983
sI134348
I2984
sI134349
I2985
sI134350
I2986
sI134351
I2987
sI134352
I2988
sI134353
I2989
sI134354
I2990
sI134355
I2991
sI134356
I2992
sI134357
I2993
sI134358
I2994
sI134359
I2995
sI134360
I2996
sI134361
I2997
sI134362
I2998
sI134363
I2999
sI134364
I3000
sI134365
I3001
sI134366
I3002
sI134367
I3003
sI134368
I3004
sI134369
I3005
sI134370
I3006
sI134371
I3007
sI134372
I3008
sI134373
I3009
sI134374
I3010
sI134375
I3011
sI134376
I3012
sI134377
I3013
sI134378
I3014
sI134379
I3015
sI134380
I3016
sI134381
I3017
sI134382
I3018
sI134383
I3019
sI134384
I3020
sI134385
I3021
sI134386
I3022
sI134387
I3023
sI134388
I3024
sI134389
I3025
sI134390
I3026
sI134391
I3027
sI134392
I3028
sI134393
I3029
sI134394
I3030
sI134395
I3031
sI134396
I3032
sI134397
I3033
sI134398
I3034
sI134399
I3035
sI134401
I3036
sI134402
I3037
sI134403
I3038
sI134404
I3039
sI134405
I3040
sI134406
I3041
sI134407
I3042
sI134408
I3043
sI134409
I3044
sI134410
I3045
sI134411
I3046
sI134412
I3047
sI134413
I3048
sI134414
I3049
sI134415
I3050
sI134416
I3051
sI134417
I3052
sI134418
I3053
sI134419
I3054
sI134420
I3055
sI134421
I3056
sI134422
I3057
sI134423
I3058
sI134425
I3059
sI134426
I3060
sI134428
I3061
sI134430
I3062
sI134431
I3063
sI134432
I3064
sI134434
I3065
sI134435
I3066
sI134436
I3067
sI134437
I3068
sI134438
I3069
sI134439
I3070
sI134440
I3071
sI134442
I3072
sI134443
I3073
sI134444
I3074
sI134445
I3075
sI134446
I3076
sI134447
I3077
sI134448
I3078
sI134449
I3079
sI134451
I3080
sI134452
I3081
sI134454
I3082
sI134455
I3083
sI134456
I3084
sI134457
I3085
sI134458
I3086
sI134459
I3087
sI134460
I3088
sI134462
I3089
sI134464
I3090
sI134465
I3091
sI134466
I3092
sI134467
I3093
sI134468
I3094
sI134469
I3095
sI134470
I3096
sI134471
I3097
sI134472
I3098
sI134473
I3099
sI134474
I3100
sI134475
I3101
sI134476
I3102
sI134477
I3103
sI134478
I3104
sI134479
I3105
sI134481
I3106
sI134482
I3107
sI134483
I3108
sI134484
I3109
sI134485
I3110
sI134486
I3111
sI134487
I3112
sI134488
I3113
sI134489
I3114
sI134491
I3115
sI134492
I3116
sI134493
I3117
sI134494
I3118
sI134496
I3119
sI134497
I3120
sI134498
I3121
sI134499
I3122
sI134500
I3123
sI134501
I3124
sI134502
I3125
sI134503
I3126
sI134504
I3127
sI134505
I3128
sI134506
I3129
sI134507
I3130
sI134508
I3131
sI134509
I3132
sI134510
I3133
sI134511
I3134
sI134512
I3135
sI134513
I3136
sI134514
I3137
sI134515
I3138
sI134516
I3139
sI134517
I3140
sI134518
I3141
sI134519
I3142
sI134520
I3143
sI134521
I3144
sI134522
I3145
sI134523
I3146
sI134524
I3147
sI134525
I3148
sI134526
I3149
sI134527
I3150
sI134528
I3151
sI134529
I3152
sI134531
I3153
sI134532
I3154
sI134535
I3155
sI134536
I3156
sI134537
I3157
sI134538
I3158
sI134539
I3159
sI134540
I3160
sI134541
I3161
sI134542
I3162
sI134543
I3163
sI134544
I3164
sI134545
I3165
sI134546
I3166
sI134547
I3167
sI134549
I3168
sI134550
I3169
sI134551
I3170
sI134552
I3171
sI134553
I3172
sI134554
I3173
sI134555
I3174
sI134556
I3175
sI134557
I3176
sI134558
I3177
sI134560
I3178
sI134561
I3179
sI134562
I3180
sI134563
I3181
sI134564
I3182
sI134565
I3183
sI134566
I3184
sI134567
I3185
sI134568
I3186
sI134570
I3187
sI134571
I3188
sI134572
I3189
sI134573
I3190
sI134574
I3191
sI134575
I3192
sI134578
I3193
sI134579
I3194
sI134581
I3195
sI134582
I3196
sI134583
I3197
sI134584
I3198
sI134585
I3199
sI134586
I3200
sI134587
I3201
sI134589
I3202
sI134590
I3203
sI134591
I3204
sI134592
I3205
sI134593
I3206
sI134594
I3207
sI134595
I3208
sI134596
I3209
sI134597
I3210
sI134599
I3211
sI134600
I3212
sI134601
I3213
sI134602
I3214
sI134603
I3215
sI134604
I3216
sI134605
I3217
sI134606
I3218
sI134607
I3219
sI134608
I3220
sI134609
I3221
sI134610
I3222
sI134611
I3223
sI134612
I3224
sI134613
I3225
sI134614
I3226
sI134615
I3227
sI134616
I3228
sI134617
I3229
sI134618
I3230
sI134619
I3231
sI134621
I3232
sI134622
I3233
sI134623
I3234
sI134624
I3235
sI134625
I3236
sI134626
I3237
sI134627
I3238
sI134628
I3239
sI134629
I3240
sI134630
I3241
sI134631
I3242
sI134632
I3243
sI134634
I3244
sI134635
I3245
sI134636
I3246
sI134637
I3247
sI134638
I3248
sI134639
I3249
sI134640
I3250
sI134641
I3251
sI134642
I3252
sI134643
I3253
sI134645
I3254
sI134646
I3255
sI134647
I3256
sI134648
I3257
sI134649
I3258
sI134650
I3259
sI134651
I3260
sI134652
I3261
sI134653
I3262
sI134654
I3263
sI134655
I3264
sI134656
I3265
sI134657
I3266
sI134658
I3267
sI134659
I3268
sI134660
I3269
sI134661
I3270
sI134662
I3271
sI134663
I3272
sI134664
I3273
sI134665
I3274
sI134666
I3275
sI134667
I3276
sI134668
I3277
sI134669
I3278
sI134672
I3279
sI134673
I3280
sI134674
I3281
sI134675
I3282
sI134676
I3283
sI134678
I3284
sI134679
I3285
sI134683
I3286
sI134684
I3287
sI134686
I3288
sI134687
I3289
sI134688
I3290
sI134690
I3291
sI134691
I3292
sI134692
I3293
sI134693
I3294
sI134694
I3295
sI134695
I3296
sI134696
I3297
sI134697
I3298
sI134698
I3299
sI134699
I3300
sI134700
I3301
sI134701
I3302
sI134703
I3303
sI134704
I3304
sI134705
I3305
sI134706
I3306
sI134707
I3307
sI134708
I3308
sI134709
I3309
sI134710
I3310
sI134711
I3311
sI134712
I3312
sI134713
I3313
sI134714
I3314
sI134715
I3315
sI134716
I3316
sI134717
I3317
sI134718
I3318
sI134719
I3319
sI134720
I3320
sI134723
I3321
sI134724
I3322
sI134725
I3323
sI134726
I3324
sI134727
I3325
sI134729
I3326
sI134731
I3327
sI134732
I3328
sI134733
I3329
sI134734
I3330
sI134735
I3331
sI134736
I3332
sI134737
I3333
sI134740
I3334
sI134741
I3335
sI134742
I3336
sI134743
I3337
sI134744
I3338
sI134745
I3339
sI134747
I3340
sI134748
I3341
sI134749
I3342
sI134750
I3343
sI134751
I3344
sI134752
I3345
sI134754
I3346
sI134755
I3347
sI134756
I3348
sI134757
I3349
sI134758
I3350
sI134759
I3351
sI134760
I3352
sI134761
I3353
sI134762
I3354
sI134763
I3355
sI134765
I3356
sI134766
I3357
sI134767
I3358
sI134768
I3359
sI134769
I3360
sI134770
I3361
sI134771
I3362
sI134772
I3363
sI134774
I3364
sI134776
I3365
sI134777
I3366
sI134778
I3367
sI134779
I3368
sI134780
I3369
sI134781
I3370
sI134782
I3371
sI134783
I3372
sI134785
I3373
sI134786
I3374
sI134787
I3375
sI134789
I3376
sI134791
I3377
sI134792
I3378
sI134794
I3379
sI134795
I3380
sI134796
I3381
sI134797
I3382
sI134798
I3383
sI134799
I3384
sI134800
I3385
sI134801
I3386
sI134802
I3387
sI134803
I3388
sI134804
I3389
sI134805
I3390
sI134806
I3391
sI134807
I3392
sI134808
I3393
sI134809
I3394
sI134810
I3395
sI134811
I3396
sI134812
I3397
sI134813
I3398
sI134814
I3399
sI134815
I3400
sI134816
I3401
sI134817
I3402
sI134818
I3403
sI134819
I3404
sI134820
I3405
sI134821
I3406
sI134822
I3407
sI134824
I3408
sI134825
I3409
sI134826
I3410
sI134827
I3411
sI134828
I3412
sI134829
I3413
sI134830
I3414
sI134831
I3415
sI134832
I3416
sI134833
I3417
sI134834
I3418
sI134835
I3419
sI134836
I3420
sI134837
I3421
sI134839
I3422
sI134840
I3423
sI134841
I3424
sI134842
I3425
sI134843
I3426
sI134845
I3427
sI134846
I3428
sI134847
I3429
sI134848
I3430
sI134849
I3431
sI134851
I3432
sI134852
I3433
sI134853
I3434
sI134854
I3435
sI134855
I3436
sI134856
I3437
sI134857
I3438
sI134859
I3439
sI134860
I3440
sI134861
I3441
sI134862
I3442
sI134863
I3443
sI134864
I3444
sI134865
I3445
sI134867
I3446
sI134868
I3447
sI134869
I3448
sI134870
I3449
sI134871
I3450
sI134873
I3451
sI134874
I3452
sI134875
I3453
sI134876
I3454
sI134877
I3455
sI134878
I3456
sI134879
I3457
sI134880
I3458
sI134881
I3459
sI134882
I3460
sI134886
I3461
sI134887
I3462
sI134888
I3463
sI134889
I3464
sI134891
I3465
sI134892
I3466
sI134893
I3467
sI134894
I3468
sI134895
I3469
sI134897
I3470
sI134898
I3471
sI134899
I3472
sI134900
I3473
sI134901
I3474
sI134902
I3475
sI134903
I3476
sI134904
I3477
sI134905
I3478
sI134906
I3479
sI134907
I3480
sI134908
I3481
sI134909
I3482
sI134910
I3483
sI134911
I3484
sI134912
I3485
sI134913
I3486
sI134914
I3487
sI134915
I3488
sI134916
I3489
sI134917
I3490
sI134918
I3491
sI134919
I3492
sI134920
I3493
sI134922
I3494
sI134923
I3495
sI134924
I3496
sI134925
I3497
sI134926
I3498
sI134927
I3499
sI134928
I3500
sI134929
I3501
sI134930
I3502
sI134931
I3503
sI134933
I3504
sI134934
I3505
sI134935
I3506
sI134936
I3507
sI134937
I3508
sI134938
I3509
sI134939
I3510
sI134940
I3511
sI134941
I3512
sI134942
I3513
sI134943
I3514
sI134944
I3515
sI134945
I3516
sI134946
I3517
sI134947
I3518
sI134948
I3519
sI134950
I3520
sI134951
I3521
sI134953
I3522
sI134954
I3523
sI134955
I3524
sI134956
I3525
sI134959
I3526
sI134960
I3527
sI134961
I3528
sI134962
I3529
sI134963
I3530
sI134964
I3531
sI134965
I3532
sI134966
I3533
sI134967
I3534
sI134968
I3535
sI134969
I3536
sI134970
I3537
sI134971
I3538
sI134972
I3539
sI134973
I3540
sI134974
I3541
sI134975
I3542
sI134976
I3543
sI134977
I3544
sI134978
I3545
sI134979
I3546
sI134980
I3547
sI134981
I3548
sI134983
I3549
sI134984
I3550
sI134985
I3551
sI134987
I3552
sI134989
I3553
sI134990
I3554
sI134991
I3555
sI134992
I3556
sI134993
I3557
sI134994
I3558
sI134995
I3559
sI134996
I3560
sI134997
I3561
sI134998
I3562
sI134999
I3563
sI135000
I3564
sI135002
I3565
sI135003
I3566
sI135004
I3567
sI135005
I3568
sI135006
I3569
sI135007
I3570
sI135008
I3571
sI135009
I3572
sI135011
I3573
sI135012
I3574
sI135013
I3575
sI135014
I3576
sI135015
I3577
sI135016
I3578
sI135017
I3579
sI135018
I3580
sI135019
I3581
sI135021
I3582
sI135022
I3583
sI135023
I3584
sI135024
I3585
sI135025
I3586
sI135026
I3587
sI135027
I3588
sI135028
I3589
sI135029
I3590
sI135030
I3591
sI135031
I3592
sI135032
I3593
sI135033
I3594
sI135034
I3595
sI135035
I3596
sI135036
I3597
sI135037
I3598
sI135038
I3599
sI135039
I3600
sI135040
I3601
sI135041
I3602
sI135042
I3603
sI135043
I3604
sI135044
I3605
sI135045
I3606
sI135048
I3607
sI135049
I3608
sI135050
I3609
sI135051
I3610
sI135052
I3611
sI135053
I3612
sI135054
I3613
sI135055
I3614
sI135056
I3615
sI135057
I3616
sI135058
I3617
sI135059
I3618
sI135060
I3619
sI135062
I3620
sI135063
I3621
sI135064
I3622
sI135065
I3623
sI135066
I3624
sI135067
I3625
sI135068
I3626
sI135069
I3627
sI135070
I3628
sI135072
I3629
sI135073
I3630
sI135074
I3631
sI135075
I3632
sI135076
I3633
sI135077
I3634
sI135078
I3635
sI135079
I3636
sI135080
I3637
sI135081
I3638
sI135082
I3639
sI135083
I3640
sI135085
I3641
sI135086
I3642
sI135087
I3643
sI135088
I3644
sI135089
I3645
sI135090
I3646
sI135091
I3647
sI135092
I3648
sI135093
I3649
sI135094
I3650
sI135095
I3651
sI135097
I3652
sI135098
I3653
sI135100
I3654
sI135101
I3655
sI135103
I3656
sI135104
I3657
sI135106
I3658
sI135107
I3659
sI135108
I3660
sI135109
I3661
sI135110
I3662
sI135111
I3663
sI135113
I3664
sI135114
I3665
sI135115
I3666
sI135116
I3667
sI135118
I3668
sI135119
I3669
sI135120
I3670
sI135121
I3671
sI135122
I3672
sI135123
I3673
sI135124
I3674
sI135125
I3675
sI135126
I3676
sI135127
I3677
sI135128
I3678
sI135130
I3679
sI135131
I3680
sI135133
I3681
sI135134
I3682
sI135135
I3683
sI135136
I3684
sI135137
I3685
sI135138
I3686
sI135139
I3687
sI135140
I3688
sI135141
I3689
sI135142
I3690
sI135143
I3691
sI135144
I3692
sI135145
I3693
sI135146
I3694
sI135147
I3695
sI135148
I3696
sI135149
I3697
sI135150
I3698
sI135151
I3699
sI135152
I3700
sI135154
I3701
sI135155
I3702
sI135156
I3703
sI135157
I3704
sI135158
I3705
sI135159
I3706
sI135160
I3707
sI135161
I3708
sI135162
I3709
sI135163
I3710
sI135164
I3711
sI135165
I3712
sI135166
I3713
sI135167
I3714
sI135168
I3715
sI135169
I3716
sI135170
I3717
sI135171
I3718
sI135172
I3719
sI135173
I3720
sI135174
I3721
sI135175
I3722
sI135176
I3723
sI135177
I3724
sI135178
I3725
sI135179
I3726
sI135180
I3727
sI135181
I3728
sI135182
I3729
sI135183
I3730
sI135184
I3731
sI135185
I3732
sI135186
I3733
sI135187
I3734
sI135188
I3735
sI135189
I3736
sI135190
I3737
sI135192
I3738
sI135193
I3739
sI135195
I3740
sI135196
I3741
sI135197
I3742
sI135198
I3743
sI135199
I3744
sI135200
I3745
sI135201
I3746
sI135202
I3747
sI135203
I3748
sI135206
I3749
sI135209
I3750
sI135210
I3751
sI135211
I3752
sI135212
I3753
sI135213
I3754
sI135215
I3755
sI135216
I3756
sI135217
I3757
sI135218
I3758
sI135220
I3759
sI135221
I3760
sI135222
I3761
sI135223
I3762
sI135224
I3763
sI135225
I3764
sI135226
I3765
sI135227
I3766
sI135229
I3767
sI135230
I3768
sI135231
I3769
sI135232
I3770
sI135233
I3771
sI135234
I3772
sI135236
I3773
sI135237
I3774
sI135238
I3775
sI135239
I3776
sI135240
I3777
sI135241
I3778
sI135242
I3779
sI135243
I3780
sI135244
I3781
sI135245
I3782
sI135246
I3783
sI135247
I3784
sI135248
I3785
sI135249
I3786
sI135250
I3787
sI135252
I3788
sI135253
I3789
sI135254
I3790
sI135255
I3791
sI135256
I3792
sI135257
I3793
sI135258
I3794
sI135259
I3795
sI135260
I3796
sI135261
I3797
sI135262
I3798
sI135263
I3799
sI135264
I3800
sI135265
I3801
sI135267
I3802
sI135268
I3803
sI135269
I3804
sI135270
I3805
sI135271
I3806
sI135272
I3807
sI135273
I3808
sI135275
I3809
sI135276
I3810
sI135277
I3811
sI135278
I3812
sI135279
I3813
sI135281
I3814
sI135282
I3815
sI135283
I3816
sI135284
I3817
sI135285
I3818
sI135286
I3819
sI135287
I3820
sI135288
I3821
sI135289
I3822
sI135290
I3823
sI135291
I3824
sI135292
I3825
sI135293
I3826
sI135294
I3827
sI135295
I3828
sI135296
I3829
sI135297
I3830
sI135298
I3831
sI135299
I3832
sI135300
I3833
sI135302
I3834
sI135303
I3835
sI135304
I3836
sI135306
I3837
sI135307
I3838
sI135308
I3839
sI135309
I3840
sI135312
I3841
sI135314
I3842
sI135315
I3843
sI135316
I3844
sI135317
I3845
sI135318
I3846
sI135319
I3847
sI135320
I3848
sI135321
I3849
sI135322
I3850
sI135323
I3851
sI135324
I3852
sI135326
I3853
sI135327
I3854
sI135329
I3855
sI135330
I3856
sI135332
I3857
sI135334
I3858
sI135335
I3859
sI135337
I3860
sI135338
I3861
sI135339
I3862
sI135340
I3863
sI135341
I3864
sI135342
I3865
sI135343
I3866
sI135344
I3867
sI135345
I3868
sI135346
I3869
sI135347
I3870
sI135348
I3871
sI135349
I3872
sI135350
I3873
sI135351
I3874
sI135352
I3875
sI135353
I3876
sI135354
I3877
sI135356
I3878
sI135357
I3879
sI135358
I3880
sI135359
I3881
sI135360
I3882
sI135362
I3883
sI135363
I3884
sI135364
I3885
sI135365
I3886
sI135366
I3887
sI135367
I3888
sI135368
I3889
sI135369
I3890
sI135370
I3891
sI135371
I3892
sI135372
I3893
sI135373
I3894
sI135374
I3895
sI135375
I3896
sI135376
I3897
sI135377
I3898
sI135378
I3899
sI135381
I3900
sI135382
I3901
sI135383
I3902
sI135384
I3903
sI135385
I3904
sI135386
I3905
sI135387
I3906
sI135388
I3907
sI135389
I3908
sI135390
I3909
sI135391
I3910
sI135392
I3911
sI135393
I3912
sI135394
I3913
sI135395
I3914
sI135396
I3915
sI135397
I3916
sI135399
I3917
sI135400
I3918
sI135401
I3919
sI135402
I3920
sI135403
I3921
sI135404
I3922
sI135405
I3923
sI135406
I3924
sI135407
I3925
sI135408
I3926
sI135410
I3927
sI135411
I3928
sI135412
I3929
sI135413
I3930
sI135414
I3931
sI135415
I3932
sI135416
I3933
sI135417
I3934
sI135418
I3935
sI135419
I3936
sI135420
I3937
sI135421
I3938
sI135422
I3939
sI135423
I3940
sI135424
I3941
sI135425
I3942
sI135426
I3943
sI135427
I3944
sI135430
I3945
sI135431
I3946
sI135432
I3947
sI135433
I3948
sI135434
I3949
sI135435
I3950
sI135436
I3951
sI135437
I3952
sI135438
I3953
sI135439
I3954
sI135440
I3955
sI135441
I3956
sI135442
I3957
sI135443
I3958
sI135444
I3959
sI135445
I3960
sI135446
I3961
sI135447
I3962
sI135448
I3963
sI135450
I3964
sI135452
I3965
sI135453
I3966
sI135454
I3967
sI135455
I3968
sI135456
I3969
sI135457
I3970
sI135458
I3971
sI135459
I3972
sI135460
I3973
sI135461
I3974
sI135463
I3975
sI135464
I3976
sI135465
I3977
sI135466
I3978
sI135467
I3979
sI135468
I3980
sI135469
I3981
sI135470
I3982
sI135471
I3983
sI135472
I3984
sI135473
I3985
sI135474
I3986
sI135477
I3987
sI135478
I3988
sI135479
I3989
sI135480
I3990
sI135481
I3991
sI135482
I3992
sI135483
I3993
sI135484
I3994
sI135485
I3995
sI135486
I3996
sI135487
I3997
sI135488
I3998
sI135489
I3999
sI135491
I4000
sI135492
I4001
sI135493
I4002
sI135494
I4003
sI135496
I4004
sI135497
I4005
sI135499
I4006
sI135501
I4007
sI135502
I4008
sI135503
I4009
sI135504
I4010
sI135505
I4011
sI135506
I4012
sI135507
I4013
sI135508
I4014
sI135509
I4015
sI135510
I4016
sI135511
I4017
sI135512
I4018
sI135513
I4019
sI135514
I4020
sI135515
I4021
sI135516
I4022
sI135517
I4023
sI135518
I4024
sI135519
I4025
sI135520
I4026
sI135521
I4027
sI135522
I4028
sI135524
I4029
sI135525
I4030
sI135527
I4031
sI135528
I4032
sI135529
I4033
sI135530
I4034
sI135531
I4035
sI135533
I4036
sI135534
I4037
sI135537
I4038
sI135538
I4039
sI135539
I4040
sI135540
I4041
sI135541
I4042
sI135542
I4043
sI135543
I4044
sI135544
I4045
sI135545
I4046
sI135546
I4047
sI135549
I4048
sI135550
I4049
sI135551
I4050
sI135553
I4051
sI135554
I4052
sI135555
I4053
sI135556
I4054
sI135557
I4055
sI135558
I4056
sI135560
I4057
sI135561
I4058
sI135562
I4059
sI135563
I4060
sI135564
I4061
sI135566
I4062
sI135567
I4063
sI135568
I4064
sI135569
I4065
sI135571
I4066
sI135572
I4067
sI135573
I4068
sI135574
I4069
sI135575
I4070
sI135577
I4071
sI135578
I4072
sI135579
I4073
sI135580
I4074
sI135582
I4075
sI135583
I4076
sI135584
I4077
sI135586
I4078
sI135587
I4079
sI135588
I4080
sI135589
I4081
sI135590
I4082
sI135591
I4083
sI135592
I4084
sI135596
I4085
sI135597
I4086
sI135598
I4087
sI135600
I4088
sI135603
I4089
sI135604
I4090
sI135605
I4091
sI135606
I4092
sI135607
I4093
sI135608
I4094
sI135610
I4095
sI135612
I4096
sI135613
I4097
sI135614
I4098
sI135615
I4099
sI135617
I4100
sI135618
I4101
sI135619
I4102
sI135621
I4103
sI135622
I4104
sI135623
I4105
sI135624
I4106
sI135625
I4107
sI135627
I4108
sI135628
I4109
sI135629
I4110
sI135630
I4111
sI135631
I4112
sI135632
I4113
sI135634
I4114
sI135635
I4115
sI135636
I4116
sI135637
I4117
sI135638
I4118
sI135640
I4119
sI135641
I4120
sI135642
I4121
sI135643
I4122
sI135644
I4123
sI135645
I4124
sI135647
I4125
sI135648
I4126
sI135649
I4127
sI135650
I4128
sI135651
I4129
sI135652
I4130
sI135655
I4131
sI135656
I4132
sI135658
I4133
sI135659
I4134
sI135661
I4135
sI135662
I4136
sI135663
I4137
sI135664
I4138
sI135665
I4139
sI135666
I4140
sI135667
I4141
sI135670
I4142
sI135671
I4143
sI135672
I4144
sI135673
I4145
sI135674
I4146
sI135675
I4147
sI135676
I4148
sI135677
I4149
sI135678
I4150
sI135680
I4151
sI135681
I4152
sI135682
I4153
sI135683
I4154
sI135684
I4155
sI135685
I4156
sI135686
I4157
sI135688
I4158
sI135689
I4159
sI135690
I4160
sI135691
I4161
sI135692
I4162
sI135694
I4163
sI135695
I4164
sI135696
I4165
sI135697
I4166
sI135698
I4167
sI135699
I4168
sI135700
I4169
sI135702
I4170
sI135703
I4171
sI135704
I4172
sI135705
I4173
sI135706
I4174
sI135707
I4175
sI135708
I4176
sI135709
I4177
sI135710
I4178
sI135712
I4179
sI135713
I4180
sI135714
I4181
sI135716
I4182
sI135717
I4183
sI135718
I4184
sI135719
I4185
sI135720
I4186
sI135723
I4187
sI135724
I4188
sI135725
I4189
sI135726
I4190
sI135727
I4191
sI135728
I4192
sI135729
I4193
sI135730
I4194
sI135732
I4195
sI135733
I4196
sI135734
I4197
sI135735
I4198
sI135736
I4199
sI135737
I4200
sI135738
I4201
sI135739
I4202
sI135741
I4203
sI135742
I4204
sI135743
I4205
sI135744
I4206
sI135747
I4207
sI135748
I4208
sI135749
I4209
sI135750
I4210
sI135752
I4211
sI135753
I4212
sI135756
I4213
sI135757
I4214
sI135758
I4215
sI135759
I4216
sI135760
I4217
sI135761
I4218
sI135763
I4219
sI135764
I4220
sI135765
I4221
sI135766
I4222
sI135767
I4223
sI135770
I4224
sI135771
I4225
sI135773
I4226
sI135774
I4227
sI135776
I4228
sI135777
I4229
sI135780
I4230
sI135781
I4231
sI135782
I4232
sI135783
I4233
sI135784
I4234
sI135785
I4235
sI135786
I4236
sI135788
I4237
sI135789
I4238
sI135790
I4239
sI135791
I4240
sI135792
I4241
sI135793
I4242
sI135794
I4243
sI135795
I4244
sI135796
I4245
sI135797
I4246
sI135799
I4247
sI135800
I4248
sI135801
I4249
sI135804
I4250
sI135805
I4251
sI135806
I4252
sI135807
I4253
sI135808
I4254
sI135810
I4255
sI135811
I4256
sI135812
I4257
sI135813
I4258
sI135815
I4259
sI135816
I4260
sI135817
I4261
sI135818
I4262
sI135819
I4263
sI135820
I4264
sI135821
I4265
sI135822
I4266
sI135823
I4267
sI135824
I4268
sI135825
I4269
sI135826
I4270
sI135827
I4271
sI135828
I4272
sI135829
I4273
sI135830
I4274
sI135831
I4275
sI135833
I4276
sI135834
I4277
sI135835
I4278
sI135836
I4279
sI135837
I4280
sI135838
I4281
sI135839
I4282
sI135840
I4283
sI135841
I4284
sI135842
I4285
sI135843
I4286
sI135844
I4287
sI135845
I4288
sI135846
I4289
sI135847
I4290
sI135848
I4291
sI135849
I4292
sI135851
I4293
sI135852
I4294
sI135853
I4295
sI135856
I4296
sI135857
I4297
sI135858
I4298
sI135859
I4299
sI135860
I4300
sI135861
I4301
sI135862
I4302
sI135863
I4303
sI135864
I4304
sI135865
I4305
sI135866
I4306
sI135867
I4307
sI135869
I4308
sI135870
I4309
sI135871
I4310
sI135873
I4311
sI135874
I4312
sI135875
I4313
sI135877
I4314
sI135878
I4315
sI135879
I4316
sI135881
I4317
sI135883
I4318
sI135884
I4319
sI135885
I4320
sI135886
I4321
sI135887
I4322
sI135889
I4323
sI135891
I4324
sI135892
I4325
sI135893
I4326
sI135895
I4327
sI135896
I4328
sI135897
I4329
sI135898
I4330
sI135899
I4331
sI135900
I4332
sI135902
I4333
sI135903
I4334
sI135904
I4335
sI135905
I4336
sI135906
I4337
sI135907
I4338
sI135909
I4339
sI135911
I4340
sI135912
I4341
sI135913
I4342
sI135914
I4343
sI135915
I4344
sI135917
I4345
sI135918
I4346
sI135919
I4347
sI135921
I4348
sI135922
I4349
sI135923
I4350
sI135924
I4351
sI135925
I4352
sI135927
I4353
sI135928
I4354
sI135929
I4355
sI135930
I4356
sI135931
I4357
sI135932
I4358
sI135933
I4359
sI135934
I4360
sI135935
I4361
sI135936
I4362
sI135937
I4363
sI135938
I4364
sI135940
I4365
sI135941
I4366
sI135942
I4367
sI135943
I4368
sI135944
I4369
sI135945
I4370
sI135946
I4371
sI135947
I4372
sI135948
I4373
sI135949
I4374
sI135950
I4375
sI135951
I4376
sI135952
I4377
sI135953
I4378
sI135956
I4379
sI135957
I4380
sI135958
I4381
sI135959
I4382
sI135960
I4383
sI135961
I4384
sI135962
I4385
sI135964
I4386
sI135965
I4387
sI135966
I4388
sI135967
I4389
sI135968
I4390
sI135969
I4391
sI135970
I4392
sI135971
I4393
sI135972
I4394
sI135973
I4395
sI135974
I4396
sI135975
I4397
sI135976
I4398
sI135977
I4399
sI135978
I4400
sI135980
I4401
sI135981
I4402
sI135982
I4403
sI135983
I4404
sI135984
I4405
sI135986
I4406
sI135987
I4407
sI135988
I4408
sI135989
I4409
sI135990
I4410
sI135991
I4411
sI135992
I4412
sI135994
I4413
sI135995
I4414
sI135998
I4415
sI135999
I4416
sI136000
I4417
sI136001
I4418
sI136002
I4419
sI136003
I4420
sI136004
I4421
sI136005
I4422
sI136006
I4423
sI136008
I4424
sI136009
I4425
sI136010
I4426
sI136011
I4427
sI136012
I4428
sI136013
I4429
sI136014
I4430
sI136015
I4431
sI136016
I4432
sI136017
I4433
sI136020
I4434
sI136022
I4435
sI136023
I4436
sI136024
I4437
sI136025
I4438
sI136026
I4439
sI136027
I4440
sI136028
I4441
sI136031
I4442
sI136032
I4443
sI136033
I4444
sI136034
I4445
sI136036
I4446
sI136037
I4447
sI136038
I4448
sI136039
I4449
sI136040
I4450
sI136041
I4451
sI136042
I4452
sI136044
I4453
sI136045
I4454
sI136046
I4455
sI136047
I4456
sI136049
I4457
sI136050
I4458
sI136051
I4459
sI136053
I4460
sI136054
I4461
sI136055
I4462
sI136056
I4463
sI136057
I4464
sI136058
I4465
sI136059
I4466
sI136060
I4467
sI136061
I4468
sI136062
I4469
sI136064
I4470
sI136065
I4471
sI136066
I4472
sI136067
I4473
sI136068
I4474
sI136069
I4475
sI136070
I4476
sI136071
I4477
sI136072
I4478
sI136073
I4479
sI136074
I4480
sI136075
I4481
sI136076
I4482
sI136077
I4483
sI136078
I4484
sI136079
I4485
sI136080
I4486
sI136081
I4487
sI136082
I4488
sI136083
I4489
sI136084
I4490
sI136085
I4491
sI136086
I4492
sI136087
I4493
sI136088
I4494
sI136089
I4495
sI136090
I4496
sI136091
I4497
sI136093
I4498
sI136094
I4499
sI136095
I4500
sI136096
I4501
sI136097
I4502
sI136098
I4503
sI136099
I4504
sI136100
I4505
sI136101
I4506
sI136102
I4507
sI136103
I4508
sI136105
I4509
sI136106
I4510
sI136107
I4511
sI136108
I4512
sI136109
I4513
sI136110
I4514
sI136111
I4515
sI136112
I4516
sI136113
I4517
sI136115
I4518
sI136116
I4519
sI136117
I4520
sI136119
I4521
sI136120
I4522
sI136122
I4523
sI136123
I4524
sI136124
I4525
sI136125
I4526
sI136126
I4527
sI136127
I4528
sI136128
I4529
sI136129
I4530
sI136130
I4531
sI136131
I4532
sI136132
I4533
sI136133
I4534
sI136134
I4535
sI136135
I4536
sI136136
I4537
sI136137
I4538
sI136138
I4539
sI136140
I4540
sI136142
I4541
sI136143
I4542
sI136144
I4543
sI136146
I4544
sI136147
I4545
sI136148
I4546
sI136149
I4547
sI136150
I4548
sI136151
I4549
sI136152
I4550
sI136154
I4551
sI136155
I4552
sI136156
I4553
sI136157
I4554
sI136159
I4555
sI136160
I4556
sI136161
I4557
sI136162
I4558
sI136163
I4559
sI136164
I4560
sI136165
I4561
sI136168
I4562
sI136169
I4563
sI136170
I4564
sI136171
I4565
sI136173
I4566
sI136174
I4567
sI136175
I4568
sI136176
I4569
sI136177
I4570
sI136179
I4571
sI136180
I4572
sI136181
I4573
sI136182
I4574
sI136183
I4575
sI136184
I4576
sI136185
I4577
sI136186
I4578
sI136187
I4579
sI136188
I4580
sI136189
I4581
sI136190
I4582
sI136191
I4583
sI136193
I4584
sI136194
I4585
sI136195
I4586
sI136196
I4587
sI136197
I4588
sI136198
I4589
sI136199
I4590
sI136200
I4591
sI136201
I4592
sI136202
I4593
sI136203
I4594
sI136204
I4595
sI136205
I4596
sI136206
I4597
sI136207
I4598
sI136208
I4599
sI136209
I4600
sI136210
I4601
sI136211
I4602
sI136212
I4603
sI136213
I4604
sI136214
I4605
sI136215
I4606
sI136216
I4607
sI136217
I4608
sI136219
I4609
sI136220
I4610
sI136221
I4611
sI136222
I4612
sI136223
I4613
sI136225
I4614
sI136226
I4615
sI136228
I4616
sI136229
I4617
sI136230
I4618
sI136231
I4619
sI136233
I4620
sI136234
I4621
sI136235
I4622
sI136236
I4623
sI136237
I4624
sI136238
I4625
sI136239
I4626
sI136240
I4627
sI136241
I4628
sI136242
I4629
sI136243
I4630
sI136244
I4631
sI136245
I4632
sI136246
I4633
sI136247
I4634
sI136248
I4635
sI136249
I4636
sI136250
I4637
sI136251
I4638
sI136252
I4639
sI136253
I4640
sI136254
I4641
sI136255
I4642
sI136256
I4643
sI136257
I4644
sI136259
I4645
sI136260
I4646
sI136261
I4647
sI136262
I4648
sI136263
I4649
sI136264
I4650
sI136265
I4651
sI136266
I4652
sI136267
I4653
sI136268
I4654
sI136269
I4655
sI136270
I4656
sI136271
I4657
sI136272
I4658
sI136273
I4659
sI136274
I4660
sI136275
I4661
sI136277
I4662
sI136278
I4663
sI136279
I4664
sI136280
I4665
sI136281
I4666
sI136282
I4667
sI136283
I4668
sI136284
I4669
sI136285
I4670
sI136286
I4671
sI136287
I4672
sI136289
I4673
sI136290
I4674
sI136291
I4675
sI136292
I4676
sI136294
I4677
sI136295
I4678
sI136296
I4679
sI136297
I4680
sI136299
I4681
sI136301
I4682
sI136302
I4683
sI136303
I4684
sI136305
I4685
sI136306
I4686
sI136307
I4687
sI136308
I4688
sI136309
I4689
sI136310
I4690
sI136311
I4691
sI136312
I4692
sI136313
I4693
sI136314
I4694
sI136315
I4695
sI136316
I4696
sI136317
I4697
sI136318
I4698
sI136319
I4699
sI136320
I4700
sI136321
I4701
sI136322
I4702
sI136323
I4703
sI136324
I4704
sI136325
I4705
sI136327
I4706
sI136328
I4707
sI136329
I4708
sI136330
I4709
sI136331
I4710
sI136332
I4711
sI136333
I4712
sI136334
I4713
sI136335
I4714
sI136337
I4715
sI136338
I4716
sI136339
I4717
sI136340
I4718
sI136341
I4719
sI136342
I4720
sI136343
I4721
sI136344
I4722
sI136345
I4723
sI136346
I4724
sI136347
I4725
sI136348
I4726
sI136349
I4727
sI136351
I4728
sI136352
I4729
sI136353
I4730
sI136354
I4731
sI136355
I4732
sI136356
I4733
sI136357
I4734
sI136360
I4735
sI136361
I4736
sI136362
I4737
sI136363
I4738
sI136364
I4739
sI136365
I4740
sI136366
I4741
sI136367
I4742
sI136369
I4743
sI136370
I4744
sI136371
I4745
sI136372
I4746
sI136374
I4747
sI136375
I4748
sI136376
I4749
sI136378
I4750
sI136380
I4751
sI136381
I4752
sI136382
I4753
sI136383
I4754
sI136384
I4755
sI136385
I4756
sI136386
I4757
sI136387
I4758
sI136389
I4759
sI136390
I4760
sI136392
I4761
sI136393
I4762
sI136394
I4763
sI136396
I4764
sI136397
I4765
sI136398
I4766
sI136399
I4767
sI136400
I4768
sI136401
I4769
sI136402
I4770
sI136403
I4771
sI136404
I4772
sI136405
I4773
sI136407
I4774
sI136408
I4775
sI136409
I4776
sI136410
I4777
sI136412
I4778
sI136414
I4779
sI136416
I4780
sI136417
I4781
sI136418
I4782
sI136420
I4783
sI136421
I4784
sI136422
I4785
sI136423
I4786
sI136424
I4787
sI136425
I4788
sI136426
I4789
sI136427
I4790
sI136428
I4791
sI136429
I4792
sI136430
I4793
sI136432
I4794
sI136433
I4795
sI136434
I4796
sI136435
I4797
sI136436
I4798
sI136438
I4799
sI136439
I4800
sI136440
I4801
sI136441
I4802
sI136442
I4803
sI136443
I4804
sI136444
I4805
sI136445
I4806
sI136446
I4807
sI136447
I4808
sI136448
I4809
sI136449
I4810
sI136450
I4811
sI136453
I4812
sI136454
I4813
sI136455
I4814
sI136456
I4815
sI136457
I4816
sI136459
I4817
sI136460
I4818
sI136461
I4819
sI136462
I4820
sI136463
I4821
sI136464
I4822
sI136465
I4823
sI136467
I4824
sI136468
I4825
sI136469
I4826
sI136470
I4827
sI136471
I4828
sI136472
I4829
sI136474
I4830
sI136475
I4831
sI136478
I4832
sI136479
I4833
sI136480
I4834
sI136481
I4835
sI136482
I4836
sI136483
I4837
sI136484
I4838
sI136485
I4839
sI136486
I4840
sI136487
I4841
sI136488
I4842
sI136489
I4843
sI136491
I4844
sI136492
I4845
sI136493
I4846
sI136494
I4847
sI136495
I4848
sI136496
I4849
sI136497
I4850
sI136498
I4851
sI136499
I4852
sI136500
I4853
sI136502
I4854
sI136503
I4855
sI136505
I4856
sI136508
I4857
sI136509
I4858
sI136510
I4859
sI136511
I4860
sI136512
I4861
sI136513
I4862
sI136514
I4863
sI136515
I4864
sI136516
I4865
sI136518
I4866
sI136519
I4867
sI136520
I4868
sI136521
I4869
sI136522
I4870
sI136523
I4871
sI136524
I4872
sI136527
I4873
sI136528
I4874
sI136529
I4875
sI136530
I4876
sI136531
I4877
sI136533
I4878
sI136534
I4879
sI136535
I4880
sI136536
I4881
sI136537
I4882
sI136538
I4883
sI136540
I4884
sI136542
I4885
sI136543
I4886
sI136544
I4887
sI136545
I4888
sI136548
I4889
sI136549
I4890
sI136550
I4891
sI136552
I4892
sI136553
I4893
sI136554
I4894
sI136555
I4895
sI136556
I4896
sI136557
I4897
sI136559
I4898
sI136561
I4899
sI136562
I4900
sI136563
I4901
sI136566
I4902
sI136568
I4903
sI136569
I4904
sI136570
I4905
sI136571
I4906
sI136573
I4907
sI136574
I4908
sI136575
I4909
sI136576
I4910
sI136577
I4911
sI136578
I4912
sI136579
I4913
sI136580
I4914
sI136581
I4915
sI136582
I4916
sI136583
I4917
sI136584
I4918
sI136585
I4919
sI136586
I4920
sI136587
I4921
sI136589
I4922
sI136590
I4923
sI136591
I4924
sI136592
I4925
sI136593
I4926
sI136594
I4927
sI136595
I4928
sI136596
I4929
sI136597
I4930
sI136598
I4931
sI136599
I4932
sI136600
I4933
sI136601
I4934
sI136602
I4935
sI136603
I4936
sI136604
I4937
sI136605
I4938
sI136606
I4939
sI136607
I4940
sI136608
I4941
sI136609
I4942
sI136611
I4943
sI136612
I4944
sI136613
I4945
sI136614
I4946
sI136615
I4947
sI136616
I4948
sI136617
I4949
sI136618
I4950
sI136619
I4951
sI136620
I4952
sI136621
I4953
sI136622
I4954
sI136623
I4955
sI136624
I4956
sI136625
I4957
sI136626
I4958
sI136627
I4959
sI136628
I4960
sI136629
I4961
sI136630
I4962
sI136631
I4963
sI136632
I4964
sI136635
I4965
sI136636
I4966
sI136637
I4967
sI136639
I4968
sI136640
I4969
sI136641
I4970
sI136642
I4971
sI136643
I4972
sI136646
I4973
sI136647
I4974
sI136648
I4975
sI136649
I4976
sI136650
I4977
sI136651
I4978
sI136652
I4979
sI136653
I4980
sI136654
I4981
sI136655
I4982
sI136656
I4983
sI136657
I4984
sI136658
I4985
sI136659
I4986
sI136660
I4987
sI136662
I4988
sI136663
I4989
sI136664
I4990
sI136665
I4991
sI136666
I4992
sI136667
I4993
sI136668
I4994
sI136669
I4995
sI136670
I4996
sI136671
I4997
sI136673
I4998
sI136674
I4999
sI136675
I5000
sI136677
I5001
sI136678
I5002
sI136680
I5003
sI136681
I5004
sI136682
I5005
sI136683
I5006
sI136684
I5007
sI136687
I5008
sI136688
I5009
sI136689
I5010
sI136690
I5011
sI136692
I5012
sI136693
I5013
sI136694
I5014
sI136695
I5015
sI136696
I5016
sI136697
I5017
sI136698
I5018
sI136699
I5019
sI136700
I5020
sI136701
I5021
sI136702
I5022
sI136703
I5023
sI136705
I5024
sI136706
I5025
sI136707
I5026
sI136708
I5027
sI136709
I5028
sI136710
I5029
sI136711
I5030
sI136712
I5031
sI136714
I5032
sI136715
I5033
sI136716
I5034
sI136717
I5035
sI136719
I5036
sI136720
I5037
sI136722
I5038
sI136723
I5039
sI136724
I5040
sI136725
I5041
sI136727
I5042
sI136728
I5043
sI136729
I5044
sI136730
I5045
sI136731
I5046
sI136732
I5047
sI136733
I5048
sI136734
I5049
sI136735
I5050
sI136736
I5051
sI136737
I5052
sI136738
I5053
sI136740
I5054
sI136741
I5055
sI136742
I5056
sI136743
I5057
sI136745
I5058
sI136746
I5059
sI136747
I5060
sI136748
I5061
sI136749
I5062
sI136750
I5063
sI136751
I5064
sI136752
I5065
sI136753
I5066
sI136754
I5067
sI136755
I5068
sI136756
I5069
sI136757
I5070
sI136758
I5071
sI136760
I5072
sI136761
I5073
sI136762
I5074
sI136763
I5075
sI136764
I5076
sI136765
I5077
sI136766
I5078
sI136767
I5079
sI136768
I5080
sI136769
I5081
sI136770
I5082
sI136771
I5083
sI136772
I5084
sI136773
I5085
sI136774
I5086
sI136776
I5087
sI136777
I5088
sI136778
I5089
sI136780
I5090
sI136783
I5091
sI136784
I5092
sI136785
I5093
sI136786
I5094
sI136787
I5095
sI136788
I5096
sI136789
I5097
sI136790
I5098
sI136792
I5099
sI136793
I5100
sI136795
I5101
sI136796
I5102
sI136797
I5103
sI136798
I5104
sI136799
I5105
sI136800
I5106
sI136801
I5107
sI136803
I5108
sI136805
I5109
sI136806
I5110
sI136807
I5111
sI136808
I5112
sI136809
I5113
sI136810
I5114
sI136811
I5115
sI136812
I5116
sI136813
I5117
sI136815
I5118
sI136816
I5119
sI136817
I5120
sI136818
I5121
sI136820
I5122
sI136821
I5123
sI136822
I5124
sI136823
I5125
sI136824
I5126
sI136825
I5127
sI136826
I5128
sI136828
I5129
sI136829
I5130
sI136830
I5131
sI136831
I5132
sI136832
I5133
sI136833
I5134
sI136834
I5135
sI136835
I5136
sI136836
I5137
sI136837
I5138
sI136838
I5139
sI136839
I5140
sI136840
I5141
sI136842
I5142
sI136843
I5143
sI136844
I5144
sI136845
I5145
sI136848
I5146
sI136850
I5147
sI136851
I5148
sI136852
I5149
sI136853
I5150
sI136854
I5151
sI136855
I5152
sI136856
I5153
sI136857
I5154
sI136858
I5155
sI136859
I5156
sI136860
I5157
sI136861
I5158
sI136862
I5159
sI136863
I5160
sI136864
I5161
sI136865
I5162
sI136866
I5163
sI136867
I5164
sI136870
I5165
sI136874
I5166
sI136875
I5167
sI136876
I5168
sI136877
I5169
sI136878
I5170
sI136880
I5171
sI136881
I5172
sI136882
I5173
sI136883
I5174
sI136885
I5175
sI136886
I5176
sI136887
I5177
sI136888
I5178
sI136889
I5179
sI136890
I5180
sI136891
I5181
sI136892
I5182
sI130873
I0
sI130874
I1
sI130875
I2
sI130876
I3
sI130877
I4
sI130878
I5
sI130879
I6
sI130880
I7
sI130881
I8
sI130882
I9
sI130883
I10
sI130884
I11
sI130885
I12
sI130886
I13
sI130887
I14
sI130888
I15
sI130889
I16
sI130890
I17
sI130891
I18
sI130892
I19
sI130893
I20
sI130895
I21
sI130896
I22
sI130897
I23
sI130898
I24
sI130899
I25
sI130900
I26
sI130902
I27
sI130903
I28
sI130904
I29
sI130905
I30
sI130906
I31
sI130907
I32
sI130908
I33
sI130909
I34
sI130910
I35
sI130911
I36
sI130912
I37
sI130913
I38
sI130915
I39
sI130916
I40
sI130917
I41
sI130918
I42
sI130919
I43
sI130920
I44
sI130921
I45
sI130922
I46
sI130923
I47
sI130924
I48
sI130926
I49
sI130927
I50
sI130928
I51
sI130929
I52
sI130930
I53
sI130931
I54
sI130932
I55
sI130933
I56
sI130934
I57
sI130935
I58
sI130936
I59
sI130937
I60
sI130938
I61
sI130940
I62
sI130941
I63
sI130942
I64
sI130943
I65
sI130944
I66
sI130945
I67
sI130946
I68
sI130948
I69
sI130949
I70
sI130950
I71
sI130951
I72
sI130952
I73
sI130953
I74
sI130954
I75
sI130955
I76
sI130956
I77
sI130957
I78
sI130958
I79
sI130959
I80
sI130960
I81
sI130961
I82
sI130962
I83
sI130963
I84
sI130964
I85
sI130965
I86
sI130966
I87
sI130967
I88
sI130968
I89
sI130969
I90
sI130970
I91
sI130971
I92
sI130972
I93
sI130973
I94
sI130974
I95
sI130975
I96
sI130976
I97
sI130977
I98
sI130978
I99
sI130980
I100
sI130981
I101
sI130982
I102
sI130983
I103
sI130984
I104
sI130985
I105
sI130987
I106
sI130988
I107
sI130990
I108
sI130991
I109
sI130992
I110
sI130993
I111
sI130994
I112
sI130995
I113
sI130996
I114
sI130997
I115
sI131001
I116
sI131002
I117
sI131003
I118
sI131004
I119
sI131006
I120
sI131007
I121
sI131008
I122
sI131009
I123
sI131010
I124
sI131011
I125
sI131012
I126
sI131014
I127
sI131015
I128
sI131016
I129
sI131017
I130
sI131018
I131
sI131019
I132
sI131020
I133
sI131021
I134
sI131022
I135
sI131025
I136
sI131026
I137
sI131027
I138
sI131028
I139
sI131029
I140
sI131030
I141
sI131031
I142
sI131033
I143
sI131034
I144
sI131035
I145
sI131037
I146
sI131038
I147
sI131039
I148
sI131040
I149
sI131041
I150
sI131043
I151
sI131044
I152
sI131045
I153
sI131046
I154
sI131047
I155
sI131048
I156
sI131049
I157
sI131050
I158
sI131051
I159
sI131052
I160
sI131053
I161
sI131054
I162
sI131055
I163
sI131056
I164
sI131057
I165
sI131058
I166
sI131059
I167
sI131060
I168
sI131061
I169
sI131062
I170
sI131063
I171
sI131064
I172
sI131065
I173
sI131066
I174
sI131067
I175
sI131068
I176
sI131069
I177
sI131070
I178
sI131071
I179
s.