(dp1
I98304
I10429
sI32771
I3447
sI4
I0
sI65542
I6925
sI43692
I4615
sI120151
I12762
sI12
I1
sI32785
I3448
sI32787
I3449
sI65558
I6926
sI32792
I3450
sI26
I2
sI32799
I3451
sI98336
I10432
sI32803
I3452
sI37
I3
sI39
I4
sI65578
I6928
sI65580
I6929
sI98351
I10433
sI32816
I3453
sI109235
I11612
sI65589
I6930
sI65590
I6931
sI58
I5
sI59
I6
sI65596
I6933
sI65599
I6934
sI65602
I6935
sI67
I7
sI99295
I10522
sI32839
I3454
sI73
I8
sI78
I9
sI98384
I10436
sI60088
I6356
sI32850
I3455
sI91
I10
sI98397
I10438
sI65630
I6937
sI95
I11
sI65632
I6938
sI65635
I6939
sI100
I12
sI124392
I13194
sI98406
I10441
sI32871
I3456
sI32875
I3457
sI112041
I11911
sI32877
I3458
sI32878
I3459
sI76477
I8121
sI114707
I12188
sI32885
I3460
sI118
I13
sI65658
I6942
sI98427
I10442
sI92750
I9835
sI65665
I6943
sI98436
I10443
sI135
I14
sI65673
I6944
sI141
I15
sI32911
I3461
sI98450
I10444
sI32917
I3462
sI150
I16
sI84022
I8922
sI156
I17
sI32925
I3463
sI32927
I3464
sI32929
I3465
sI32931
I3466
sI32932
I3467
sI105845
I11240
sI168
I18
sI169
I19
sI170
I20
sI65708
I6945
sI32941
I3468
sI65720
I6946
sI186
I21
sI65567
I6927
sI188
I22
sI98495
I10449
sI32961
I3470
sI98501
I10450
sI65737
I6948
sI98507
I10452
sI98508
I10453
sI78568
I8341
sI32977
I3471
sI98515
I10454
sI98516
I10455
sI5497
I583
sI98520
I10456
sI32985
I3472
sI32986
I3473
sI222
I23
sI225
I24
sI227
I25
sI229
I26
sI65769
I6951
sI98538
I10458
sI65772
I6952
sI65776
I6953
sI244
I27
sI5502
I584
sI65783
I6954
sI76500
I8122
sI251
I28
sI98556
I10462
sI254
I29
sI256
I30
sI257
I31
sI259
I32
sI98564
I10463
sI65799
I6955
sI78570
I8342
sI65803
I6956
sI52383
I5545
sI33037
I3474
sI109272
I11616
sI65812
I6957
sI98584
I10464
sI282
I33
sI98352
I10434
sI293
I34
sI33062
I3475
sI98600
I10465
sI33065
I3476
sI299
I35
sI33068
I3477
sI33073
I3478
sI65843
I6958
sI33078
I3479
sI65848
I6960
sI33081
I3480
sI65852
I6961
sI98622
I10466
sI65856
I6962
sI33091
I3481
sI65861
I6963
sI65862
I6964
sI33100
I3482
sI76514
I8124
sI65870
I6966
sI65871
I6967
sI65872
I6968
sI100395
I10637
sI98642
I10469
sI33107
I3483
sI33108
I3484
sI33109
I3485
sI65887
I6969
sI352
I36
sI353
I37
sI65595
I6932
sI33124
I3486
sI33126
I3487
sI120209
I12771
sI360
I38
sI33131
I3488
sI98669
I10472
sI65906
I6971
sI65910
I6972
sI125673
I13339
sI98680
I10473
sI98683
I10474
sI120213
I12772
sI98689
I10475
sI390
I39
sI65930
I6973
sI396
I40
sI49218
I5192
sI65935
I6974
sI33168
I3489
sI65939
I6975
sI65940
I6976
sI98710
I10477
sI98711
I10478
sI98713
I10479
sI33179
I3490
sI65949
I6977
sI33185
I3491
sI65954
I6978
sI103835
I11011
sI98724
I10480
sI33190
I3492
sI98728
I10481
sI427
I41
sI428
I42
sI431
I43
sI81992
I8704
sI436
I44
sI33206
I3494
sI33210
I3495
sI443
I45
sI33218
I3496
sI33222
I3497
sI54689
I5795
sI65993
I6979
sI65997
I6980
sI466
I46
sI66003
I6981
sI98774
I10483
sI33240
I3498
sI474
I47
sI98779
I10484
sI476
I48
sI98781
I10485
sI484
I49
sI486
I50
sI33256
I3500
sI98795
I10486
sI33260
I3501
sI98386
I10437
sI494
I51
sI87464
I9277
sI98803
I10487
sI98804
I10488
sI33269
I3502
sI66039
I6982
sI82005
I8705
sI33286
I3503
sI66056
I6983
sI98825
I10489
sI522
I52
sI66059
I6984
sI33293
I3504
sI98830
I10490
sI531
I53
sI33305
I3505
sI33307
I3506
sI66077
I6985
sI546
I54
sI33315
I3507
sI33319
I3508
sI66088
I6986
sI66089
I6987
sI33324
I3509
sI33325
I3510
sI33326
I3511
sI60168
I6363
sI564
I55
sI66103
I6988
sI568
I56
sI33337
I3512
sI82015
I8706
sI33342
I3513
sI98400
I10440
sI66115
I6989
sI33349
I3514
sI587
I57
sI33358
I3515
sI98896
I10493
sI33363
I3516
sI596
I58
sI98905
I10494
sI33370
I3517
sI60175
I6366
sI33373
I3518
sI609
I59
sI33380
I3519
sI618
I60
sI114791
I12192
sI621
I61
sI622
I62
sI98927
I10495
sI33399
I3520
sI101496
I10776
sI33402
I3521
sI98940
I10496
sI33405
I3522
sI33407
I3523
sI641
I63
sI82027
I8708
sI33413
I3524
sI66185
I6993
sI108680
I11555
sI98958
I10497
sI66191
I6994
sI98961
I10498
sI33428
I3525
sI66198
I6995
sI665
I64
sI675
I65
sI66213
I6996
sI122229
I12989
sI66219
I6997
sI98989
I10500
sI686
I66
sI67673
I7165
sI66233
I6998
sI699
I67
sI700
I68
sI66238
I6999
sI65653
I6940
sI11040
I1145
sI65654
I6941
sI33478
I3526
sI66250
I7001
sI92962
I9856
sI33486
I3527
sI103885
I11016
sI66256
I7002
sI67674
I7166
sI99029
I10502
sI99030
I10503
sI82950
I8806
sI735
I69
sI736
I70
sI33507
I3528
sI740
I71
sI33510
I3529
sI746
I72
sI747
I73
sI99052
I10504
sI33519
I3530
sI33523
I3531
sI66294
I7004
sI759
I74
sI33528
I3532
sI33529
I3533
sI762
I75
sI33531
I3534
sI66301
I7006
sI89498
I9500
sI33535
I3535
sI99072
I10505
sI76587
I8133
sI33541
I3536
sI776
I76
sI777
I77
sI778
I78
sI99087
I10506
sI785
I79
sI82051
I8712
sI791
I80
sI33562
I3538
sI33564
I3539
sI799
I81
sI99106
I10507
sI120283
I12778
sI99111
I10508
sI808
I82
sI120284
I12779
sI811
I83
sI33582
I3540
sI66352
I7008
sI99121
I10509
sI66354
I7009
sI66358
I7010
sI66361
I7011
sI830
I84
sI66367
I7013
sI33601
I3541
sI108463
I11529
sI66372
I7014
sI76598
I8136
sI840
I85
sI66377
I7015
sI125921
I13363
sI119588
I12712
sI847
I86
sI853
I87
sI99158
I10510
sI99161
I10511
sI859
I88
sI862
I89
sI99168
I10512
sI867
I90
sI33636
I3543
sI66408
I7016
sI66411
I7017
sI876
I91
sI33646
I3544
sI66415
I7018
sI66417
I7019
sI66419
I7020
sI33652
I3545
sI99189
I10513
sI887
I92
sI82068
I8714
sI83804
I8902
sI33659
I3546
sI896
I93
sI66433
I7021
sI33666
I3547
sI33668
I3548
sI901
I94
sI125761
I13351
sI906
I95
sI33675
I3550
sI33676
I3551
sI33678
I3552
sI911
I96
sI33680
I3553
sI99222
I10515
sI33691
I3554
sI33693
I3555
sI128784
I13664
sI33695
I3556
sI930
I97
sI98459
I10445
sI99237
I10517
sI934
I98
sI33703
I3558
sI33704
I3559
sI66474
I7022
sI76615
I8137
sI940
I99
sI941
I100
sI66478
I7023
sI944
I101
sI99250
I10519
sI947
I102
sI66487
I7024
sI953
I103
sI66490
I7025
sI86231
I9145
sI66496
I7026
sI66497
I7027
sI963
I104
sI66505
I7028
sI973
I105
sI66510
I7029
sI64409
I6799
sI33746
I3560
sI66517
I7031
sI66518
I7032
sI66523
I7033
sI66524
I7034
sI991
I106
sI33760
I3561
sI996
I107
sI109393
I11624
sI1000
I108
sI66537
I7037
sI1002
I109
sI82087
I8716
sI1009
I110
sI33778
I3562
sI99316
I10524
sI33781
I3563
sI99319
I10525
sI1016
I111
sI99321
I10526
sI1019
I112
sI1024
I113
sI66564
I7038
sI66565
I7039
sI98476
I10447
sI66570
I7040
sI99340
I10528
sI33806
I3564
sI98477
I10448
sI33808
I3565
sI66577
I7041
sI33811
I3566
sI33812
I3567
sI33813
I3568
sI33814
I3569
sI1047
I114
sI99353
I10532
sI49327
I5209
sI33823
I3570
sI99360
I10533
sI99361
I10534
sI1059
I115
sI99364
I10535
sI99365
I10536
sI66598
I7042
sI1064
I116
sI66604
I7044
sI33837
I3571
sI33838
I3572
sI66607
I7045
sI99378
I10538
sI33845
I3573
sI87561
I9283
sI66616
I7046
sI99386
I10539
sI33854
I3574
sI1087
I117
sI93024
I9862
sI33859
I3575
sI1098
I118
sI66635
I7048
sI66636
I7049
sI66638
I7050
sI1103
I119
sI99412
I10541
sI33877
I3576
sI66647
I7051
sI32954
I3469
sI66658
I7052
sI33891
I3577
sI1124
I120
sI1125
I121
sI1127
I122
sI33896
I3578
sI33898
I3579
sI43879
I4633
sI66669
I7055
sI33902
I3580
sI54803
I5805
sI33908
I3581
sI99445
I10543
sI93033
I9864
sI33914
I3582
sI125518
I13318
sI1149
I123
sI38421
I4052
sI1154
I124
sI33924
I3583
sI114607
I12184
sI1158
I125
sI33927
I3584
sI66697
I7057
sI1167
I126
sI1168
I127
sI33937
I3585
sI1172
I128
sI33941
I3586
sI1174
I129
sI66711
I7059
sI1176
I130
sI66713
I7060
sI66722
I7061
sI79692
I8456
sI1194
I131
sI33969
I3587
sI99506
I10546
sI99507
I10547
sI66740
I7064
sI98505
I10451
sI66744
I7065
sI66747
I7066
sI99333
I10527
sI82122
I8718
sI33984
I3588
sI99521
I10549
sI99522
I10550
sI66756
I7067
sI87585
I9284
sI1224
I132
sI66761
I7068
sI1228
I133
sI33998
I3589
sI93048
I9865
sI34002
I3590
sI1238
I134
sI34007
I3591
sI34012
I3592
sI66781
I7069
sI34016
I3593
sI34021
I3594
sI65745
I6949
sI99561
I10552
sI1258
I135
sI118975
I12634
sI109437
I11628
sI99568
I10553
sI1270
I136
sI34039
I3595
sI34045
I3596
sI1278
I137
sI72057
I7639
sI99584
I10554
sI99585
I10555
sI66821
I7073
sI66825
I7074
sI66826
I7075
sI114903
I12206
sI1292
I138
sI66829
I7076
sI1294
I139
sI99599
I10557
sI66834
I7077
sI34071
I3599
sI99608
I10558
sI34073
I3600
sI99612
I10559
sI34077
I3601
sI66851
I7078
sI78605
I8348
sI1319
I140
sI34093
I3602
sI66863
I7079
sI100428
I10642
sI1331
I141
sI1334
I142
sI43913
I4636
sI1342
I143
sI1347
I144
sI66885
I7080
sI34118
I3603
sI1351
I145
sI34120
I3605
sI76684
I8147
sI34127
I3606
sI99667
I10560
sI99672
I10561
sI1369
I146
sI66912
I7082
sI93072
I9868
sI34148
I3607
sI99685
I10562
sI1382
I147
sI99687
I10563
sI1388
I148
sI99693
I10564
sI120381
I12788
sI34161
I3608
sI99698
I10565
sI1395
I149
sI66932
I7084
sI34169
I3609
sI104795
I11119
sI71231
I7550
sI1406
I150
sI60309
I6380
sI1408
I151
sI16619
I1720
sI34181
I3610
sI34182
I3611
sI66952
I7089
sI34189
I3612
sI66961
I7091
sI34194
I3613
sI99731
I10568
sI1428
I152
sI34202
I3614
sI34204
I3615
sI34208
I3616
sI66977
I7092
sI66982
I7093
sI87623
I9287
sI66988
I7094
sI66990
I7095
sI34223
I3617
sI1456
I153
sI66995
I7097
sI34231
I3618
sI111344
I11828
sI102615
I10894
sI98549
I10459
sI1472
I154
sI99778
I10570
sI1480
I155
sI1481
I156
sI34259
I3620
sI98553
I10460
sI99801
I10571
sI67035
I7098
sI99804
I10572
sI1502
I157
sI93093
I9873
sI99808
I10575
sI98555
I10461
sI34278
I3621
sI34279
I3622
sI34284
I3623
sI120402
I12793
sI67057
I7099
sI34295
I3624
sI99832
I10576
sI1529
I158
sI99838
I10577
sI34305
I3625
sI1540
I159
sI67077
I7101
sI99344
I10529
sI67079
I7102
sI34313
I3626
sI67084
I7103
sI99853
I10578
sI1552
I160
sI99857
I10579
sI34324
I3627
sI99862
I10580
sI87641
I9291
sI67096
I7105
sI67101
I7106
sI34334
I3628
sI1572
I161
sI1573
I162
sI1574
I163
sI99880
I10583
sI99881
I10584
sI1579
I164
sI1580
I165
sI1583
I166
sI34352
I3630
sI1586
I167
sI1588
I168
sI99895
I10585
sI99896
I10586
sI99898
I10587
sI67135
I7108
sI67138
I7109
sI90617
I9612
sI67140
I7110
sI1606
I169
sI120418
I12797
sI99918
I10588
sI34385
I3631
sI1618
I170
sI71267
I7552
sI99924
I10589
sI99925
I10590
sI34391
I3632
sI1628
I171
sI67165
I7111
sI67168
I7112
sI34411
I3633
sI34413
I3634
sI1646
I172
sI67186
I7113
sI34420
I3635
sI99958
I10591
sI1655
I173
sI99960
I10592
sI99961
I10593
sI34426
I3636
sI1664
I174
sI67201
I7114
sI67207
I7115
sI99976
I10594
sI34448
I3637
sI114968
I12213
sI1684
I175
sI1687
I176
sI34460
I3638
sI34462
I3639
sI100001
I10596
sI1700
I177
sI109510
I11634
sI34472
I3641
sI100010
I10597
sI34476
I3642
sI34481
I3643
sI54899
I5817
sI67253
I7117
sI100441
I10644
sI1721
I178
sI1722
I179
sI100027
I10599
sI34492
I3644
sI34500
I3645
sI110433
I11731
sI34507
I3646
sI109517
I11635
sI100052
I10600
sI99351
I10531
sI1754
I180
sI60367
I6387
sI1756
I181
sI34527
I3647
sI1760
I182
sI1762
I183
sI1763
I184
sI34533
I3648
sI100074
I10604
sI34540
I3649
sI100078
I10605
sI34543
I3650
sI67312
I7122
sI34545
I3651
sI100083
I10606
sI34549
I3652
sI100086
I10607
sI100088
I10608
sI105899
I11245
sI109525
I11637
sI67330
I7123
sI1796
I185
sI67335
I7124
sI67337
I7125
sI67349
I7126
sI67350
I7127
sI34586
I3653
sI1819
I186
sI100124
I10609
sI64684
I6831
sI1822
I187
sI34596
I3654
sI120454
I12800
sI1831
I188
sI67370
I7129
sI120455
I12801
sI108198
I11489
sI67374
I7130
sI67376
I7131
sI34609
I3655
sI34610
I3656
sI34611
I3657
sI1845
I189
sI34614
I3658
sI67383
I7132
sI34620
I3659
sI104810
I11122
sI34622
I3660
sI1855
I190
sI34624
I3661
sI128815
I13668
sI34626
I3662
sI100163
I10610
sI65846
I6959
sI60385
I6388
sI67400
I7133
sI67405
I7134
sI1870
I191
sI1871
I192
sI34641
I3663
sI34646
I3664
sI100186
I10611
sI67424
I7135
sI1889
I194
sI100195
I10612
sI34664
I3665
sI100201
I10613
sI67435
I7136
sI34669
I3666
sI34673
I3667
sI1906
I195
sI67443
I7138
sI34676
I3668
sI1912
I196
sI1913
I197
sI34684
I3670
sI100221
I10615
sI100224
I10616
sI100226
I10617
sI100227
I10618
sI120470
I12803
sI100230
I10619
sI1927
I198
sI71319
I7556
sI65532
I6924
sI89703
I9521
sI100241
I10621
sI67475
I7139
sI100244
I10622
sI100245
I10623
sI1942
I199
sI71321
I7557
sI34712
I3671
sI34713
I3672
sI120474
I12804
sI1950
I200
sI34719
I3673
sI100259
I10624
sI67715
I7176
sI67495
I7141
sI34728
I3674
sI34730
I3675
sI1965
I201
sI1969
I202
sI97176
I10300
sI67515
I7143
sI1980
I203
sI100286
I10625
sI1987
I204
sI87713
I9297
sI34761
I3677
sI67533
I7144
sI1998
I205
sI2000
I206
sI67537
I7145
sI34773
I3679
sI2008
I207
sI100317
I10626
sI67550
I7146
sI2015
I208
sI34784
I3680
sI98640
I10468
sI67554
I7147
sI34787
I3681
sI67557
I7148
sI34790
I3682
sI100328
I10629
sI2025
I209
sI2029
I210
sI2030
I211
sI125949
I13364
sI104104
I11043
sI67570
I7150
sI67571
I7151
sI109566
I11640
sI67577
I7152
sI100348
I10631
sI67581
I7153
sI100350
I10632
sI34820
I3683
sI67589
I7154
sI67590
I7155
sI2056
I212
sI71340
I7558
sI2058
I213
sI2059
I214
sI34829
I3684
sI34831
I3685
sI2064
I215
sI67602
I7159
sI67603
I7160
sI100372
I10634
sI2070
I216
sI34844
I3686
sI100384
I10636
sI67617
I7161
sI67621
I7162
sI2091
I217
sI100397
I10638
sI100399
I10639
sI2097
I218
sI104115
I11044
sI111365
I11831
sI98655
I10471
sI34877
I3688
sI100416
I10640
sI34881
I3689
sI34882
I3690
sI125963
I13365
sI2117
I219
sI2118
I220
sI129915
I13793
sI2124
I221
sI34893
I3691
sI128824
I13670
sI34897
I3692
sI2134
I222
sI67671
I7164
sI65892
I6970
sI34906
I3693
sI67676
I7167
sI2142
I223
sI100448
I10646
sI67682
I7168
sI67690
I7169
sI49511
I5228
sI2156
I224
sI67694
I7170
sI67701
I7171
sI67704
I7172
sI67705
I7173
sI34939
I3694
sI67708
I7174
sI34941
I3695
sI11285
I1168
sI34944
I3696
sI67714
I7175
sI34947
I3697
sI2180
I225
sI34951
I3698
sI2185
I226
sI34960
I3699
sI2193
I227
sI100501
I10652
sI44057
I4651
sI100506
I10653
sI100507
I10654
sI67746
I7179
sI34979
I3701
sI67750
I7180
sI100519
I10656
sI34984
I3702
sI100525
I10657
sI93911
I9957
sI120520
I12811
sI2226
I228
sI58995
I6244
sI100532
I10658
sI67767
I7182
sI67773
I7183
sI67776
I7184
sI35009
I3703
sI100548
I10659
sI2245
I229
sI2247
I230
sI35017
I3704
sI2254
I231
sI67792
I7186
sI2257
I232
sI35029
I3705
sI100568
I10660
sI109604
I11643
sI2266
I233
sI100573
I10662
sI100574
I10663
sI35041
I3706
sI2277
I234
sI2282
I235
sI35053
I3707
sI67824
I7188
sI87764
I9302
sI67835
I7189
sI100604
I10664
sI35072
I3708
sI67842
I7190
sI100613
I10666
sI67846
I7191
sI35080
I3709
sI120535
I12815
sI100620
I10668
sI67853
I7192
sI2321
I236
sI100626
I10669
sI67859
I7193
sI2327
I237
sI2329
I238
sI35099
I3710
sI35102
I3711
sI2341
I239
sI35111
I3712
sI2344
I240
sI100650
I10671
sI2349
I241
sI67887
I7195
sI2354
I242
sI2355
I243
sI35126
I3713
sI80822
I8581
sI35131
I3714
sI100673
I10673
sI2370
I244
sI35140
I3715
sI44086
I4654
sI55009
I5832
sI35144
I3716
sI2377
I245
sI100682
I10674
sI67916
I7197
sI98701
I10476
sI2385
I246
sI100690
I10676
sI123124
I13077
sI100694
I10677
sI100695
I10678
sI67930
I7198
sI100707
I10679
sI2404
I247
sI76459
I8117
sI100714
I10681
sI2411
I248
sI115090
I12223
sI60477
I6397
sI2422
I249
sI35191
I3718
sI2426
I250
sI2429
I251
sI2431
I252
sI67968
I7199
sI35201
I3720
sI100740
I10683
sI2437
I253
sI67974
I7200
sI2439
I254
sI67977
I7201
sI2442
I255
sI67979
I7202
sI67980
I7203
sI129783
I13773
sI67985
I7204
sI67987
I7205
sI35221
I3721
sI100758
I10686
sI100759
I10687
sI35227
I3722
sI2461
I256
sI2462
I257
sI100771
I10689
sI2468
I258
sI68005
I7207
sI99375
I10537
sI68011
I7208
sI68015
I7209
sI100784
I10690
sI35249
I3723
sI68019
I7210
sI100788
I10691
sI2485
I259
sI68023
I7211
sI35256
I3724
sI115103
I12224
sI109642
I11651
sI5877
I617
sI2496
I260
sI2499
I261
sI68038
I7213
sI68043
I7214
sI2508
I262
sI68046
I7215
sI44109
I4656
sI68048
I7216
sI68049
I7217
sI35282
I3727
sI2516
I263
sI100824
I10694
sI52458
I5553
sI100826
I10696
sI68059
I7219
sI100828
I10697
sI68061
I7220
sI92830
I9844
sI84101
I8929
sI100835
I10698
sI100838
I10699
sI68074
I7221
sI35308
I3728
sI100845
I10700
sI2544
I264
sI35313
I3729
sI35320
I3730
sI68089
I7223
sI106074
I11265
sI2562
I265
sI100867
I10701
sI2566
I266
sI35337
I3731
sI97196
I10303
sI2573
I267
sI35344
I3732
sI2577
I268
sI68117
I7224
sI126041
I13374
sI2587
I269
sI68124
I7225
sI35359
I3734
sI68128
I7226
sI2593
I270
sI100899
I10704
sI49585
I5237
sI100905
I10705
sI2602
I271
sI35371
I3735
sI100912
I10706
sI2610
I272
sI2611
I273
sI100917
I10707
sI35383
I3736
sI126658
I13439
sI100921
I10708
sI35388
I3737
sI104202
I11051
sI2624
I274
sI68161
I7228
sI35394
I3738
sI104203
I11052
sI35396
I3739
sI68165
I7229
sI68167
I7230
sI100936
I10710
sI68170
I7231
sI100940
I10711
sI35405
I3740
sI2641
I275
sI68178
I7232
sI44131
I4657
sI35412
I3741
sI100951
I10713
sI68184
I7233
sI76900
I8174
sI35418
I3742
sI35420
I3743
sI2655
I276
sI89561
I9505
sI2663
I277
sI2666
I278
sI100972
I10716
sI2670
I279
sI35439
I3744
sI60520
I6404
sI68212
I7234
sI100473
I10648
sI35448
I3745
sI35450
I3746
sI49599
I5239
sI2684
I280
sI2689
I281
sI35459
I3747
sI68228
I7237
sI2693
I282
sI2696
I283
sI35465
I3748
sI2699
I284
sI101006
I10719
sI35474
I3749
sI35475
I3750
sI35476
I3751
sI35477
I3752
sI2710
I285
sI68252
I7239
sI35485
I3753
sI68254
I7240
sI63376
I6689
sI87835
I9309
sI35492
I3754
sI98758
I10482
sI35495
I3755
sI2728
I286
sI35497
I3756
sI68267
I7241
sI122442
I13013
sI60530
I6405
sI68272
I7242
sI35510
I3757
sI101048
I10723
sI101050
I10724
sI35515
I3758
sI101055
I10725
sI68288
I7244
sI101058
I10726
sI68292
I7245
sI68294
I7246
sI35528
I3759
sI35529
I3760
sI101066
I10728
sI2763
I287
sI101069
I10729
sI35535
I3761
sI2768
I288
sI100476
I10649
sI101074
I10730
sI55075
I5841
sI68313
I7248
sI101082
I10731
sI101085
I10732
sI2783
I289
sI35552
I3762
sI35553
I3763
sI68323
I7249
sI68334
I7250
sI35571
I3764
sI35572
I3765
sI101110
I10735
sI2817
I291
sI68354
I7252
sI35587
I3766
sI35588
I3767
sI109697
I11654
sI35592
I3768
sI35593
I3769
sI2829
I292
sI49624
I5242
sI35604
I3770
sI2837
I293
sI68375
I7254
sI2840
I294
sI2841
I295
sI2843
I296
sI101150
I10738
sI2850
I297
sI2851
I298
sI68389
I7255
sI2855
I299
sI84112
I8931
sI68395
I7256
sI101169
I10739
sI35636
I3773
sI126089
I13376
sI101181
I10741
sI2878
I300
sI2879
I301
sI86295
I9149
sI2885
I302
sI2887
I303
sI68428
I7258
sI101200
I10742
sI2897
I304
sI2898
I305
sI5945
I621
sI35673
I3774
sI101210
I10743
sI2907
I306
sI101214
I10744
sI68447
I7262
sI127183
I13502
sI2916
I307
sI101221
I10745
sI71484
I7576
sI101229
I10746
sI35695
I3775
sI68467
I7263
sI68470
I7264
sI35706
I3776
sI101248
I10747
sI68481
I7265
sI101253
I10748
sI68487
I7266
sI35722
I3777
sI35727
I3778
sI2962
I309
sI2965
I310
sI2966
I311
sI2967
I312
sI68509
I7267
sI2978
I313
sI101284
I10751
sI68517
I7268
sI2987
I314
sI68525
I7269
sI68526
I7270
sI2991
I315
sI35765
I3779
sI2998
I316
sI101306
I10752
sI68540
I7271
sI35776
I3780
sI68545
I7272
sI100484
I10651
sI101317
I10753
sI68550
I7273
sI68551
I7274
sI130507
I13845
sI35785
I3781
sI35787
I3782
sI38733
I4085
sI3027
I317
sI101332
I10755
sI35798
I3783
sI35800
I3784
sI35806
I3785
sI35807
I3786
sI35808
I3787
sI101346
I10757
sI101347
I10758
sI93350
I9901
sI126119
I13380
sI101356
I10759
sI3054
I319
sI3055
I320
sI3058
I321
sI120659
I12821
sI101364
I10760
sI3062
I322
sI85210
I9032
sI35833
I3788
sI101373
I10761
sI3071
I323
sI68608
I7278
sI68610
I7279
sI11435
I1187
sI101382
I10763
sI3081
I324
sI35850
I3789
sI87895
I9314
sI121218
I12885
sI101391
I10765
sI35856
I3790
sI35862
I3791
sI101399
I10766
sI3096
I325
sI35865
I3792
sI101403
I10768
sI3102
I326
sI68640
I7281
sI68641
I7282
sI101410
I10770
sI3108
I327
sI5559
I589
sI68651
I7283
sI101420
I10772
sI68653
I7284
sI35887
I3794
sI68660
I7285
sI3126
I328
sI3127
I329
sI35900
I3796
sI101442
I10773
sI3139
I330
sI3140
I331
sI115898
I12316
sI103762
I11003
sI68685
I7286
sI35921
I3797
sI35924
I3798
sI3157
I332
sI101467
I10774
sI3164
I333
sI68705
I7287
sI3171
I334
sI35941
I3799
sI3177
I335
sI3179
I336
sI68717
I7289
sI3185
I337
sI35954
I3800
sI3188
I338
sI101494
I10775
sI87913
I9316
sI35960
I3801
sI35961
I3802
sI68731
I7290
sI3198
I339
sI68735
I7291
sI3200
I340
sI101507
I10777
sI101508
I10778
sI101511
I10779
sI68744
I7292
sI68745
I7293
sI109762
I11658
sI101519
I10780
sI101521
I10781
sI68756
I7294
sI36683
I3870
sI101533
I10782
sI3230
I341
sI68773
I7295
sI101545
I10783
sI36010
I3803
sI3246
I342
sI3247
I343
sI3251
I344
sI3252
I345
sI109769
I11660
sI71540
I7583
sI93386
I9909
sI36034
I3804
sI126155
I13385
sI115233
I12237
sI3273
I346
sI3279
I347
sI3280
I348
sI36052
I3805
sI36055
I3806
sI36058
I3807
sI101595
I10784
sI101596
I10785
sI115237
I12238
sI68833
I7297
sI68836
I7298
sI36069
I3808
sI36070
I3809
sI36075
I3810
sI3308
I350
sI68845
I7299
sI101615
I10788
sI36081
I3811
sI68851
I7300
sI3316
I351
sI107041
I11374
sI68854
I7301
sI3321
I352
sI122317
I12999
sI68862
I7303
sI68865
I7304
sI36098
I3812
sI68869
I7305
sI101640
I10789
sI115244
I12240
sI36106
I3813
sI68875
I7306
sI3344
I353
sI3345
I354
sI98862
I10491
sI68887
I7307
sI3354
I355
sI3358
I356
sI101664
I10791
sI101665
I10792
sI68900
I7308
sI98865
I10492
sI36140
I3814
sI115772
I12303
sI3377
I357
sI3378
I358
sI3380
I359
sI36150
I3815
sI113590
I12085
sI36154
I3816
sI3387
I360
sI101693
I10794
sI68926
I7311
sI3391
I361
sI3392
I362
sI36164
I3817
sI3400
I363
sI57943
I6130
sI101710
I10795
sI68943
I7312
sI68946
I7313
sI126179
I13387
sI3412
I364
sI36186
I3819
sI3420
I365
sI36190
I3820
sI3425
I366
sI36194
I3821
sI109227
I11611
sI36198
I3822
sI36201
I3823
sI36202
I3824
sI98316
I10430
sI36207
I3825
sI36208
I3826
sI3441
I367
sI68979
I7315
sI101750
I10796
sI101751
I10797
sI68984
I7316
sI36219
I3827
sI101756
I10798
sI101757
I10799
sI3455
I368
sI101760
I10800
sI36225
I3828
sI36230
I3829
sI101768
I10801
sI3466
I369
sI36238
I3830
sI101776
I10804
sI3475
I370
sI101780
I10806
sI36245
I3831
sI36246
I3832
sI3479
I371
sI68857
I7302
sI36256
I3833
sI3489
I372
sI3490
I373
sI69027
I7318
sI3492
I374
sI101797
I10808
sI3497
I375
sI3498
I376
sI69035
I7319
sI3501
I377
sI36270
I3834
sI3504
I378
sI3507
I379
sI83385
I8854
sI101817
I10809
sI3520
I380
sI69059
I7322
sI36292
I3835
sI3525
I381
sI69065
I7323
sI69066
I7324
sI69069
I7325
sI101838
I10811
sI101839
I10812
sI69073
I7326
sI101842
I10813
sI95046
I10082
sI66126
I6990
sI3542
I382
sI126201
I13388
sI3544
I383
sI3546
I384
sI101851
I10815
sI36316
I3836
sI101855
I10816
sI93435
I9919
sI3556
I385
sI69093
I7327
sI3562
I386
sI69099
I7328
sI36333
I3837
sI69102
I7329
sI66131
I6991
sI101876
I10819
sI3575
I387
sI115284
I12246
sI101885
I10820
sI82517
I8763
sI98321
I10431
sI69126
I7330
sI3592
I388
sI3594
I389
sI36365
I3838
sI3598
I390
sI36367
I3839
sI36370
I3840
sI36373
I3841
sI3610
I391
sI3613
I392
sI69150
I7333
sI36386
I3842
sI36388
I3843
sI105960
I11256
sI69158
I7334
sI104369
I11072
sI36393
I3844
sI69165
I7335
sI36398
I3845
sI36401
I3846
sI71603
I7591
sI3636
I393
sI36405
I3847
sI101942
I10823
sI36407
I3848
sI3641
I394
sI3643
I395
sI69180
I7336
sI3645
I396
sI3646
I397
sI3649
I398
sI69186
I7337
sI3651
I399
sI101957
I10824
sI3656
I400
sI3658
I401
sI69196
I7338
sI111417
I11839
sI69199
I7339
sI101971
I10825
sI36439
I3851
sI3674
I402
sI36446
I3852
sI69215
I7341
sI77072
I8193
sI115302
I12250
sI69224
I7342
sI36462
I3853
sI122012
I12963
sI3699
I403
sI3701
I404
sI69239
I7343
sI102008
I10826
sI71615
I7593
sI36481
I3854
sI3716
I405
sI102027
I10827
sI69264
I7344
sI3729
I406
sI3732
I407
sI69270
I7345
sI102040
I10828
sI102043
I10829
sI3740
I408
sI3742
I409
sI102051
I10831
sI69285
I7347
sI69286
I7348
sI102055
I10832
sI97353
I10320
sI3759
I410
sI3762
I411
sI36531
I3858
sI69302
I7349
sI55241
I5856
sI3768
I412
sI69305
I7350
sI93471
I9923
sI36540
I3859
sI121425
I12902
sI3774
I413
sI36545
I3860
sI78687
I8357
sI36550
I3861
sI69319
I7351
sI3784
I414
sI102089
I10834
sI69326
I7352
sI36560
I3862
sI3793
I415
sI102099
I10835
sI3802
I416
sI69340
I7353
sI69346
I7354
sI69351
I7355
sI36587
I3863
sI36589
I3864
sI102126
I10836
sI69361
I7356
sI3831
I417
sI102137
I10839
sI66175
I6992
sI77098
I8195
sI3838
I418
sI36609
I3865
sI3842
I419
sI77099
I8196
sI3844
I420
sI102152
I10840
sI69389
I7357
sI109356
I11623
sI115331
I12255
sI102166
I10841
sI36631
I3866
sI3866
I421
sI3867
I422
sI102177
I10842
sI69410
I7358
sI88027
I9327
sI3881
I423
sI102186
I10844
sI36651
I3867
sI102188
I10845
sI102189
I10846
sI3888
I424
sI36657
I3868
sI36658
I3869
sI102203
I10847
sI102205
I10848
sI69439
I7359
sI102213
I10849
sI74327
I7875
sI3915
I425
sI69452
I7360
sI82573
I8771
sI69456
I7361
sI69457
I7362
sI3922
I426
sI36696
I3871
sI3931
I427
sI102237
I10851
sI3934
I428
sI104421
I11079
sI3937
I429
sI36712
I3872
sI82515
I8761
sI112844
I11992
sI123429
I13103
sI3950
I430
sI69487
I7365
sI36721
I3873
sI69490
I7366
sI69491
I7367
sI77118
I8197
sI3958
I431
sI102265
I10853
sI36731
I3874
sI36733
I3875
sI69503
I7368
sI102272
I10856
sI36737
I3876
sI3970
I432
sI36739
I3877
sI7770
I809
sI102278
I10858
sI36743
I3878
sI3980
I433
sI3981
I434
sI102286
I10859
sI36753
I3879
sI3986
I435
sI126275
I13396
sI36757
I3880
sI36759
I3881
sI111428
I11842
sI36763
I3882
sI69534
I7371
sI4001
I436
sI36772
I3883
sI4006
I437
sI36776
I3884
sI4009
I438
sI4011
I439
sI102316
I10860
sI69550
I7373
sI69554
I7374
sI4020
I440
sI69557
I7375
sI4023
I441
sI102328
I10861
sI102332
I10862
sI36797
I3885
sI102337
I10863
sI36802
I3886
sI109899
I11676
sI36808
I3887
sI69577
I7376
sI4043
I442
sI4049
I443
sI102358
I10864
sI88057
I9332
sI69592
I7377
sI4058
I444
sI4059
I445
sI102364
I10865
sI69599
I7378
sI36834
I3888
sI36839
I3889
sI4075
I446
sI102380
I10866
sI4078
I447
sI102383
I10867
sI114224
I12147
sI109908
I11677
sI4094
I448
sI69633
I7380
sI102409
I10868
sI102412
I10869
sI4111
I449
sI69648
I7381
sI69649
I7382
sI69651
I7383
sI98990
I10501
sI36891
I3890
sI69661
I7384
sI36894
I3891
sI69664
I7385
sI4129
I450
sI69666
I7386
sI36901
I3892
sI36902
I3893
sI69673
I7387
sI69675
I7388
sI36916
I3894
sI36918
I3895
sI4151
I452
sI69688
I7389
sI102462
I10872
sI69701
I7390
sI102471
I10873
sI115383
I12261
sI93538
I9929
sI4174
I453
sI4176
I454
sI102481
I10875
sI4181
I455
sI102488
I10876
sI36963
I3896
sI102502
I10877
sI36967
I3897
sI69738
I7391
sI4203
I456
sI4204
I457
sI4205
I458
sI69742
I7393
sI36978
I3898
sI4211
I459
sI56879
I6016
sI69755
I7394
sI4220
I460
sI36989
I3899
sI36991
I3900
sI69760
I7395
sI69762
I7396
sI102531
I10879
sI4229
I461
sI69767
I7397
sI4235
I462
sI37005
I3901
sI77165
I8200
sI102544
I10880
sI102548
I10881
sI126318
I13400
sI69786
I7398
sI4251
I463
sI102556
I10882
sI69789
I7399
sI37022
I3902
sI66245
I7000
sI4257
I464
sI87432
I9272
sI104475
I11086
sI37031
I3903
sI4264
I465
sI69801
I7400
sI4268
I466
sI37039
I3904
sI102576
I10888
sI102577
I10889
sI102578
I10890
sI102582
I10891
sI102583
I10892
sI69816
I7401
sI69817
I7402
sI120865
I12835
sI102601
I10893
sI4299
I467
sI4303
I468
sI37072
I3905
sI128781
I13662
sI88099
I9339
sI37079
I3906
sI102616
I10895
sI37082
I3907
sI4316
I469
sI11642
I1210
sI71717
I7602
sI102624
I10896
sI37091
I3908
sI102629
I10897
sI4333
I470
sI69870
I7404
sI37103
I3909
sI4337
I472
sI69875
I7405
sI4340
I473
sI102646
I10899
sI37111
I3910
sI37112
I3911
sI102653
I10900
sI69887
I7407
sI69894
I7408
sI69896
I7409
sI69899
I7410
sI37133
I3912
sI4371
I474
sI69916
I7411
sI82650
I8780
sI4382
I475
sI126341
I13402
sI37152
I3913
sI4386
I476
sI69923
I7412
sI37156
I3914
sI102694
I10904
sI109960
I11682
sI37170
I3915
sI77193
I8202
sI4409
I477
sI69947
I7413
sI69953
I7414
sI4419
I478
sI102725
I10905
sI82657
I8781
sI102730
I10906
sI69965
I7415
sI4430
I479
sI4432
I480
sI4445
I481
sI102752
I10907
sI69986
I7416
sI69987
I7417
sI69997
I7418
sI37230
I3916
sI4466
I482
sI37236
I3917
sI37237
I3918
sI70006
I7419
sI4471
I484
sI4476
I485
sI4481
I486
sI102790
I10909
sI115436
I12268
sI4490
I487
sI4491
I488
sI37262
I3919
sI4495
I489
sI37264
I3920
sI102801
I10910
sI70034
I7420
sI103807
I11006
sI70037
I7421
sI37270
I3921
sI70040
I7422
sI37273
I3922
sI37276
I3923
sI37277
I3924
sI102816
I10911
sI4513
I490
sI37282
I3926
sI37286
I3927
sI4520
I491
sI4521
I492
sI102827
I10913
sI102829
I10914
sI102834
I10915
sI66291
I7003
sI37301
I3928
sI37302
I3929
sI70071
I7424
sI70074
I7425
sI37307
I3930
sI55370
I5872
sI102850
I10917
sI37315
I3931
sI70084
I7426
sI37318
I3932
sI70087
I7427
sI70089
I7428
sI4559
I493
sI103809
I11007
sI37333
I3933
sI70104
I7429
sI37342
I3934
sI37343
I3935
sI66299
I7005
sI70122
I7430
sI49917
I5278
sI37362
I3936
sI102901
I10919
sI102903
I10920
sI102905
I10921
sI70139
I7431
sI37374
I3937
sI70143
I7432
sI70144
I7433
sI89626
I9512
sI17153
I1779
sI102920
I10923
sI102922
I10924
sI70155
I7434
sI102927
I10925
sI37392
I3938
sI71768
I7607
sI102932
I10926
sI102933
I10927
sI55385
I5875
sI70169
I7435
sI4637
I494
sI70175
I7436
sI37411
I3939
sI70181
I7437
sI70183
I7438
sI102952
I10929
sI4650
I495
sI4652
I496
sI4653
I497
sI37424
I3940
sI93619
I9936
sI70196
I7439
sI37429
I3941
sI33545
I3537
sI71775
I7609
sI70204
I7440
sI4669
I498
sI4672
I499
sI37445
I3942
sI4678
I500
sI102984
I10930
sI4682
I501
sI37451
I3943
sI37453
I3944
sI37454
I3945
sI49933
I5280
sI37457
I3946
sI4696
I502
sI70233
I7442
sI37466
I3947
sI37467
I3948
sI103004
I10931
sI4702
I503
sI37481
I3949
sI4716
I504
sI103021
I10932
sI4718
I505
sI4719
I506
sI70257
I7443
sI37491
I3950
sI70260
I7444
sI4732
I507
sI4734
I508
sI37504
I3951
sI37511
I3952
sI37517
I3953
sI37520
I3954
sI37522
I3955
sI70292
I7447
sI4757
I509
sI116127
I12345
sI105434
I11191
sI4764
I510
sI103070
I10933
sI126405
I13410
sI70307
I7449
sI70308
I7450
sI70309
I7451
sI103079
I10934
sI37547
I3956
sI37551
I3957
sI70320
I7452
sI65627
I6936
sI70325
I7453
sI37559
I3958
sI77065
I8192
sI103097
I10935
sI4794
I511
sI37566
I3959
sI70335
I7454
sI103104
I10936
sI4802
I512
sI103108
I10937
sI37573
I3960
sI37577
I3961
sI116782
I12424
sI4811
I513
sI103117
I10939
sI4815
I514
sI103123
I10940
sI4820
I515
sI37589
I3962
sI37591
I3963
sI70360
I7455
sI37594
I3964
sI110031
I11691
sI70365
I7456
sI4830
I516
sI37605
I3966
sI70374
I7457
sI37608
I3967
sI37610
I3968
sI70384
I7458
sI98363
I10435
sI4850
I518
sI37619
I3969
sI37621
I3970
sI4857
I519
sI4861
I520
sI37632
I3971
sI115499
I12275
sI103172
I10941
sI4878
I521
sI4880
I522
sI4884
I523
sI4885
I524
sI4886
I525
sI112549
I11962
sI103197
I10942
sI119096
I12654
sI4896
I526
sI37667
I3972
sI103204
I10943
sI37669
I3973
sI37673
I3974
sI37674
I3975
sI120967
I12846
sI4910
I527
sI70447
I7462
sI70452
I7463
sI88201
I9353
sI103226
I10944
sI4924
I528
sI119097
I12655
sI4927
I529
sI37696
I3976
sI11744
I1226
sI37698
I3977
sI4935
I530
sI37704
I3978
sI103243
I10947
sI4942
I531
sI37713
I3979
sI4947
I532
sI70486
I7466
sI103256
I10949
sI103263
I10950
sI37728
I3980
sI37729
I3981
sI70498
I7467
sI128628
I13649
sI37733
I3982
sI4968
I533
sI4969
I534
sI4970
I535
sI103277
I10951
sI70510
I7468
sI103283
I10952
sI37748
I3983
sI66366
I7012
sI37751
I3984
sI120980
I12849
sI37754
I3985
sI4987
I536
sI92912
I9851
sI4990
I537
sI70527
I7470
sI37760
I3986
sI70531
I7471
sI90730
I9623
sI4998
I538
sI37767
I3987
sI37771
I3988
sI37772
I3989
sI70541
I7473
sI70543
I7474
sI70544
I7475
sI94088
I9976
sI71833
I7615
sI103320
I10955
sI103324
I10956
sI70558
I7476
sI108773
I11561
sI103328
I10957
sI37793
I3990
sI103334
I10958
sI37807
I3991
sI5041
I539
sI5044
I540
sI43813
I4627
sI103352
I10960
sI5050
I541
sI103356
I10962
sI115530
I12281
sI103359
I10963
sI37832
I3992
sI37833
I3993
sI110071
I11694
sI5068
I542
sI70608
I7477
sI103379
I10964
sI85277
I9038
sI115534
I12282
sI37850
I3994
sI103387
I10965
sI70620
I7478
sI109146
I11599
sI5090
I543
sI103395
I10966
sI55462
I5883
sI97280
I10315
sI70631
I7480
sI70632
I7481
sI5097
I544
sI104615
I11098
sI37874
I3995
sI37875
I3996
sI37877
I3997
sI37879
I3998
sI103416
I10968
sI103419
I10969
sI70652
I7482
sI37886
I3999
sI37891
I4000
sI103428
I10970
sI5128
I545
sI70672
I7485
sI126467
I13417
sI37910
I4001
sI37911
I4002
sI103448
I10973
sI37914
I4003
sI88239
I9357
sI37917
I4004
sI5150
I547
sI60933
I6442
sI70690
I7486
sI82779
I8791
sI70697
I7487
sI55474
I5885
sI37939
I4005
sI37941
I4006
sI5174
I548
sI70712
I7488
sI103484
I10975
sI11786
I1232
sI37950
I4007
sI5185
I549
sI70726
I7490
sI93708
I9943
sI68914
I7310
sI5199
I550
sI5200
I551
sI33635
I3542
sI37973
I4008
sI121017
I12855
sI70747
I7491
sI103517
I10976
sI5214
I552
sI70752
I7492
sI37985
I4009
sI5220
I554
sI70758
I7493
sI70761
I7494
sI37995
I4010
sI5229
I555
sI70767
I7495
sI70769
I7496
sI70770
I7497
sI70771
I7498
sI5236
I556
sI5237
I557
sI70775
I7499
sI103545
I10978
sI5242
I558
sI87465
I9278
sI38019
I4011
sI5252
I559
sI103557
I10981
sI103559
I10982
sI70792
I7501
sI70794
I7502
sI38028
I4012
sI103568
I10984
sI70803
I7503
sI5268
I560
sI70807
I7505
sI5275
I561
sI70812
I7506
sI5279
I562
sI103584
I10987
sI82800
I8792
sI5282
I563
sI126491
I13421
sI70821
I7507
sI70825
I7508
sI103596
I10988
sI5294
I564
sI70831
I7509
sI5296
I565
sI50035
I5290
sI5306
I566
sI38079
I4014
sI103616
I10989
sI70849
I7510
sI70852
I7511
sI5319
I567
sI70858
I7512
sI38097
I4015
sI5331
I568
sI103636
I10990
sI93732
I9945
sI38106
I4016
sI60965
I6447
sI5344
I569
sI103649
I10992
sI5348
I570
sI77350
I8218
sI103658
I10994
sI70891
I7514
sI5362
I571
sI103669
I10995
sI70903
I7515
sI70905
I7516
sI70907
I7517
sI38142
I4017
sI70911
I7518
sI38145
I4018
sI103686
I10997
sI70920
I7519
sI5385
I572
sI5386
I573
sI121048
I12861
sI70932
I7521
sI103701
I10998
sI70936
I7522
sI5406
I574
sI33669
I3549
sI126751
I13453
sI118022
I12532
sI103716
I10999
sI38182
I4019
sI103720
I11000
sI103721
I11001
sI70954
I7523
sI38187
I4020
sI44594
I4716
sI70958
I7524
sI38191
I4021
sI126515
I13427
sI5428
I575
sI5430
I576
sI70970
I7525
sI38204
I4022
sI38207
I4023
sI120488
I12806
sI5446
I577
sI103754
I11002
sI126519
I13428
sI38221
I4024
sI38223
I4025
sI38226
I4026
sI5460
I578
sI38230
I4027
sI38232
I4028
sI5465
I579
sI5467
I580
sI38237
I4029
sI103774
I11005
sI5476
I581
sI38248
I4030
sI5484
I582
sI77373
I8222
sI115603
I12289
sI71028
I7529
sI38265
I4031
sI38267
I4032
sI38270
I4033
sI38271
I4034
sI38273
I4035
sI71043
I7530
sI103812
I11008
sI71047
I7531
sI103816
I11009
sI5516
I585
sI122897
I13052
sI86383
I9162
sI38293
I4036
sI38296
I4037
sI71065
I7532
sI5530
I586
sI71067
I7533
sI115610
I12291
sI5536
I587
sI71920
I7622
sI38307
I4038
sI103847
I11012
sI71081
I7534
sI5546
I588
sI110151
I11701
sI112571
I11965
sI71089
I7535
sI119118
I12658
sI103861
I11013
sI38327
I4039
sI103864
I11014
sI5561
I590
sI103866
I11015
sI38331
I4040
sI71101
I7536
sI38336
I4041
sI38339
I4042
sI71108
I7537
sI104694
I11107
sI33698
I3557
sI5583
I591
sI99235
I10516
sI5590
I592
sI38359
I4043
sI100570
I10661
sI38361
I4044
sI103899
I11018
sI5597
I593
sI71139
I7538
sI77393
I8224
sI103920
I11019
sI5617
I594
sI5618
I595
sI38387
I4045
sI71161
I7539
sI99480
I10545
sI38395
I4046
sI71164
I7540
sI5629
I596
sI38398
I4047
sI71167
I7541
sI71169
I7542
sI71170
I7543
sI38404
I4048
sI71173
I7544
sI65723
I6947
sI103947
I11022
sI71180
I7545
sI38413
I4049
sI5646
I597
sI38416
I4050
sI38417
I4051
sI103954
I11025
sI50094
I5294
sI107119
I11377
sI38428
I4053
sI38430
I4054
sI38431
I4055
sI97030
I10290
sI5665
I598
sI103972
I11027
sI103977
I11028
sI5674
I599
sI38444
I4056
sI106313
I11290
sI38448
I4057
sI5683
I600
sI71220
I7547
sI5686
I601
sI103991
I11029
sI71225
I7549
sI5691
I602
sI5695
I603
sI104000
I11030
sI5699
I604
sI104006
I11031
sI104007
I11032
sI104011
I11033
sI71245
I7551
sI92936
I9853
sI38479
I4058
sI38480
I4059
sI5718
I605
sI104029
I11034
sI104031
I11035
sI104033
I11036
sI5730
I606
sI17339
I1800
sI38502
I4060
sI77415
I8228
sI71277
I7553
sI38510
I4061
sI71280
I7554
sI104049
I11038
sI38514
I4062
sI104055
I11039
sI106031
I11261
sI104058
I11040
sI71295
I7555
sI5760
I607
sI110396
I11727
sI104072
I11041
sI38538
I4063
sI104727
I11112
sI38540
I4064
sI38541
I4065
sI5776
I608
sI5781
I609
sI38551
I4066
sI5784
I610
sI38553
I4067
sI5792
I611
sI111488
I11848
sI71963
I7626
sI104100
I11042
sI38566
I4068
sI38568
I4069
sI5804
I612
sI71343
I7559
sI71344
I7560
sI5809
I613
sI38579
I4070
sI5813
I614
sI38583
I4071
sI121119
I12874
sI38589
I4072
sI71358
I7561
sI38592
I4073
sI38594
I4074
sI71369
I7562
sI89037
I9446
sI99278
I10521
sI38614
I4075
sI110201
I11708
sI71385
I7563
sI5851
I615
sI104157
I11046
sI5855
I616
sI104164
I11047
sI82897
I8800
sI38632
I4076
sI71404
I7565
sI66514
I7030
sI71406
I7566
sI71410
I7567
sI104179
I11049
sI38645
I4077
sI38648
I4078
sI104191
I11050
sI38659
I4079
sI115670
I12297
sI5896
I618
sI38666
I4080
sI71435
I7568
sI5900
I619
sI5901
I620
sI79849
I8469
sI104212
I11053
sI50137
I5299
sI104219
I11054
sI71453
I7569
sI38691
I4081
sI71464
I7570
sI98399
I10439
sI71467
I7571
sI71469
I7572
sI71470
I7573
sI38703
I4082
sI71473
I7574
sI104243
I11056
sI38708
I4083
sI71479
I7575
sI38713
I4084
sI106533
I11317
sI66527
I7035
sI5948
I622
sI5952
I623
sI71492
I7577
sI5958
I624
sI104263
I11059
sI5965
I625
sI5973
I626
sI5977
I627
sI71515
I7578
sI75487
I8003
sI5983
I628
sI71522
I7579
sI38755
I4086
sI104294
I11061
sI71528
I7580
sI71529
I7581
sI115917
I12319
sI104301
I11062
sI71537
I7582
sI38770
I4087
sI6004
I629
sI104309
I11063
sI99305
I10523
sI71544
I7584
sI6009
I630
sI104316
I11064
sI104319
I11065
sI38785
I4088
sI38789
I4089
sI71558
I7585
sI6026
I631
sI71563
I7586
sI38796
I4090
sI71565
I7587
sI104334
I11066
sI71567
I7588
sI104338
I11067
sI71578
I7589
sI6043
I632
sI38812
I4091
sI6048
I633
sI38818
I4092
sI93851
I9950
sI104357
I11069
sI38823
I4093
sI71594
I7590
sI6060
I634
sI38830
I4094
sI77469
I8235
sI38833
I4095
sI6067
I636
sI104375
I11073
sI71610
I7592
sI6474
I680
sI104382
I11074
sI38847
I4096
sI104384
I11075
sI93004
I9860
sI110241
I11711
sI86402
I9165
sI92949
I9855
sI72014
I7630
sI104406
I11076
sI38874
I4097
sI104411
I11077
sI6109
I637
sI71647
I7594
sI6112
I638
sI104419
I11078
sI38885
I4098
sI104425
I11080
sI71661
I7595
sI6126
I639
sI104434
I11081
sI104435
I11082
sI38904
I4099
sI6138
I640
sI38908
I4100
sI114773
I12191
sI71680
I7596
sI6146
I641
sI61099
I6460
sI38916
I4101
sI71686
I7597
sI71689
I7598
sI58525
I6193
sI6159
I642
sI71696
I7599
sI71697
I7600
sI104468
I11085
sI6165
I643
sI38935
I4102
sI71707
I7601
sI38943
I4103
sI6178
I644
sI72027
I7632
sI50182
I5303
sI71719
I7603
sI71721
I7604
sI38954
I4104
sI38955
I4105
sI6190
I645
sI104497
I11089
sI104501
I11090
sI105847
I11241
sI71736
I7605
sI38969
I4106
sI104506
I11091
sI38977
I4107
sI6212
I646
sI71751
I7606
sI104520
I11092
sI6218
I647
sI6219
I648
sI121186
I12881
sI130681
I13867
sI6228
I649
sI6232
I650
sI39001
I4108
sI71771
I7608
sI104540
I11093
sI39005
I4109
sI39007
I4110
sI39008
I4111
sI71777
I7610
sI6244
I651
sI106535
I11319
sI39017
I4112
sI39018
I4113
sI71787
I7611
sI71792
I7612
sI104808
I11121
sI71794
I7613
sI39027
I4114
sI104566
I11094
sI39032
I4115
sI99348
I10530
sI104570
I11095
sI71805
I7614
sI104574
I11096
sI39041
I4116
sI121195
I12882
sI6280
I652
sI6283
I653
sI6284
I654
sI6285
I655
sI6286
I656
sI6287
I657
sI6296
I658
sI6297
I659
sI71834
I7616
sI39067
I4117
sI6300
I660
sI71840
I7617
sI94047
I9969
sI39075
I4118
sI55665
I5901
sI104616
I11099
sI104617
I11100
sI6321
I661
sI104631
I11101
sI39096
I4119
sI6330
I662
sI104635
I11102
sI128964
I13689
sI93898
I9956
sI71872
I7618
sI71880
I7619
sI6350
I663
sI104655
I11104
sI39123
I4120
sI110286
I11718
sI6359
I664
sI115748
I12301
sI71899
I7620
sI71900
I7621
sI6367
I665
sI126783
I13458
sI88443
I9378
sI39140
I4121
sI6376
I666
sI127049
I13487
sI6381
I667
sI6384
I668
sI66600
I7043
sI104692
I11106
sI88446
I9379
sI6390
I669
sI126676
I13442
sI71931
I7623
sI39165
I4122
sI104703
I11108
sI71937
I7624
sI6403
I670
sI6405
I671
sI6406
I672
sI104711
I11109
sI77527
I8239
sI6413
I673
sI104719
I11110
sI71953
I7625
sI104722
I11111
sI6420
I674
sI6423
I675
sI121220
I12886
sI104730
I11113
sI6427
I676
sI126682
I13443
sI6433
I677
sI123776
I13126
sI71986
I7627
sI104756
I11114
sI6457
I678
sI6459
I679
sI104764
I11115
sI71999
I7628
sI72003
I7629
sI104775
I11116
sI104777
I11117
sI39242
I4123
sI6478
I681
sI6480
I682
sI72017
I7631
sI104787
I11118
sI6491
I683
sI72029
I7633
sI72034
I7634
sI72035
I7635
sI39270
I4124
sI104807
I11120
sI72040
I7636
sI83004
I8814
sI72042
I7637
sI6508
I684
sI104814
I11123
sI6511
I685
sI39281
I4125
sI104819
I11124
sI72052
I7638
sI115774
I12304
sI6521
I686
sI39290
I4126
sI66623
I7047
sI108239
I11499
sI104832
I11125
sI72065
I7640
sI39298
I4127
sI72069
I7641
sI6536
I687
sI104842
I11126
sI39307
I4128
sI6541
I688
sI72082
I7642
sI72083
I7643
sI72084
I7644
sI72087
I7645
sI6554
I689
sI6555
I690
sI72094
I7646
sI39330
I4129
sI39335
I4130
sI72104
I7647
sI104878
I11127
sI39343
I4131
sI104883
I11129
sI6580
I691
sI6582
I692
sI72120
I7648
sI6588
I693
sI39361
I4133
sI104899
I11130
sI72134
I7649
sI6608
I694
sI110328
I11722
sI39379
I4134
sI99406
I10540
sI72152
I7651
sI104922
I11132
sI72158
I7652
sI39391
I4135
sI39396
I4136
sI39408
I4137
sI39411
I4138
sI6646
I696
sI72183
I7653
sI93016
I9861
sI39419
I4139
sI6653
I697
sI72190
I7654
sI72192
I7655
sI72193
I7656
sI104962
I11136
sI39428
I4140
sI72201
I7657
sI6667
I698
sI39436
I4141
sI104976
I11138
sI72210
I7660
sI72212
I7661
sI6677
I699
sI39446
I4142
sI6681
I700
sI104879
I11128
sI39455
I4144
sI104971
I11137
sI6689
I701
sI6695
I702
sI105001
I11140
sI39466
I4145
sI39468
I4146
sI39480
I4147
sI39482
I4148
sI39484
I4149
sI6719
I703
sI39350
I4132
sI105030
I11141
sI105034
I11142
sI72269
I7663
sI6736
I704
sI124613
I13216
sI57656
I6102
sI6741
I705
sI6742
I706
sI105048
I11144
sI66660
I7053
sI126735
I13449
sI130069
I13805
sI6754
I707
sI39524
I4150
sI39526
I4151
sI72296
I7666
sI125705
I13343
sI39534
I4152
sI105072
I11145
sI105074
I11146
sI39539
I4153
sI72310
I7668
sI39543
I4154
sI39545
I4155
sI6778
I708
sI72315
I7670
sI39549
I4156
sI72318
I7671
sI66667
I7054
sI105095
I11149
sI100610
I10665
sI34961
I3700
sI72332
I7672
sI72335
I7673
sI72337
I7674
sI6806
I709
sI72344
I7675
sI93978
I9963
sI39583
I4157
sI72352
I7676
sI6818
I710
sI6819
I711
sI104902
I11131
sI39591
I4158
sI115887
I12315
sI39599
I4159
sI105138
I11151
sI39603
I4160
sI72372
I7678
sI105141
I11152
sI105142
I11153
sI39611
I4161
sI6846
I712
sI6853
I713
sI39622
I4162
sI72393
I7679
sI72395
I7680
sI39628
I4163
sI6865
I714
sI6870
I715
sI39639
I4164
sI97592
I10356
sI72413
I7681
sI105183
I11155
sI105188
I11156
sI72421
I7682
sI6887
I716
sI105195
I11157
sI39660
I4165
sI66685
I7056
sI72432
I7683
sI72433
I7684
sI72147
I7650
sI105205
I11159
sI105210
I11160
sI39676
I4166
sI105214
I11161
sI105215
I11162
sI105216
I11163
sI6914
I718
sI105219
I11164
sI39689
I4167
sI6923
I719
sI105230
I11165
sI39695
I4168
sI105233
I11166
sI39699
I4169
sI105236
I11167
sI39701
I4170
sI6936
I720
sI72473
I7685
sI6944
I721
sI39714
I4171
sI105251
I11169
sI105252
I11170
sI72488
I7686
sI72490
I7687
sI126770
I13457
sI105270
I11171
sI6623
I695
sI39740
I4172
sI66791
I7070
sI74429
I7890
sI39746
I4173
sI72518
I7688
sI105288
I11173
sI6986
I723
sI39756
I4174
sI121314
I12892
sI6992
I724
sI39761
I4175
sI39762
I4176
sI6996
I726
sI72534
I7689
sI6999
I727
sI7000
I728
sI39769
I4177
sI66703
I7058
sI7009
I729
sI105320
I11176
sI7017
I730
sI105322
I11177
sI103891
I11017
sI39791
I4178
sI105328
I11178
sI39793
I4179
sI39799
I4180
sI72571
I7690
sI72572
I7691
sI99477
I10544
sI72577
I7692
sI39810
I4181
sI7044
I731
sI7049
I732
sI39820
I4182
sI7053
I733
sI7054
I734
sI39825
I4183
sI39827
I4184
sI105369
I11181
sI39834
I4185
sI50675
I5367
sI94021
I9966
sI72611
I7696
sI72612
I7697
sI105384
I11183
sI112622
I11970
sI105388
I11184
sI7086
I735
sI126792
I13461
sI39859
I4186
sI7103
I736
sI7105
I737
sI105411
I11186
sI104950
I11133
sI7110
I738
sI39885
I4187
sI105423
I11189
sI105424
I11190
sI72657
I7699
sI39892
I4188
sI39894
I4189
sI72665
I7700
sI72666
I7701
sI104954
I11134
sI39902
I4190
sI7135
I739
sI72672
I7702
sI83110
I8824
sI70070
I7423
sI39915
I4191
sI72684
I7703
sI39917
I4192
sI72686
I7704
sI7151
I740
sI7157
I741
sI120071
I12755
sI7159
I742
sI39930
I4193
sI105467
I11193
sI66730
I7062
sI105472
I11194
sI72706
I7705
sI39940
I4194
sI104961
I11135
sI39946
I4195
sI7179
I743
sI105486
I11195
sI121347
I12893
sI105498
I11196
sI39963
I4196
sI105500
I11197
sI105506
I11198
sI105507
I11199
sI7204
I744
sI121350
I12894
sI66737
I7063
sI39976
I4197
sI105513
I11201
sI39978
I4198
sI7211
I745
sI7212
I746
sI7213
I747
sI72752
I7706
sI105521
I11203
sI39986
I4199
sI80791
I8578
sI7220
I748
sI7222
I749
sI39991
I4200
sI72760
I7707
sI39995
I4201
sI117671
I12499
sI72768
I7708
sI102575
I10887
sI72203
I7658
sI72775
I7709
sI72204
I7659
sI40011
I4202
sI72782
I7710
sI72783
I7711
sI105552
I11207
sI40017
I4203
sI7250
I750
sI7254
I751
sI72792
I7712
sI40026
I4204
sI7259
I752
sI72797
I7713
sI105572
I11210
sI7269
I753
sI7271
I754
sI99516
I10548
sI105578
I11211
sI104978
I11139
sI105582
I11212
sI83133
I8825
sI105584
I11213
sI40049
I4205
sI40052
I4206
sI72822
I7714
sI72824
I7715
sI119199
I12669
sI40061
I4207
sI7302
I755
sI40071
I4208
sI7304
I756
sI72842
I7717
sI105612
I11215
sI7311
I757
sI105619
I11216
sI105621
I11217
sI72854
I7718
sI39449
I4143
sI94063
I9972
sI40098
I4209
sI67894
I7196
sI40101
I4210
sI7334
I759
sI40103
I4211
sI7338
I760
sI126834
I13465
sI107197
I11391
sI7343
I761
sI7345
I762
sI105654
I11220
sI87535
I9281
sI72888
I7721
sI121375
I12897
sI7356
I763
sI7361
I764
sI50379
I5329
sI40133
I4213
sI72911
I7722
sI105681
I11222
sI105682
I11223
sI40148
I4214
sI7383
I765
sI40155
I4215
sI105695
I11224
sI40163
I4216
sI72933
I7725
sI105888
I11242
sI126844
I13466
sI7407
I766
sI105713
I11226
sI115923
I12320
sI72949
I7726
sI40186
I4217
sI40188
I4218
sI72234
I7662
sI105728
I11229
sI105731
I11230
sI72965
I7727
sI40201
I4219
sI40203
I4220
sI40207
I4221
sI72978
I7728
sI105749
I11232
sI7451
I767
sI83162
I8829
sI72992
I7729
sI72994
I7730
sI40227
I4222
sI72998
I7731
sI7463
I768
sI40232
I4223
sI40235
I4224
sI73004
I7732
sI40241
I4225
sI105780
I11234
sI40245
I4226
sI40246
I4227
sI7481
I770
sI40252
I4228
sI110474
I11737
sI115936
I12322
sI105796
I11235
sI73030
I7733
sI40265
I4229
sI105802
I11236
sI40267
I4230
sI7507
I771
sI40276
I4231
sI73046
I7734
sI105816
I11237
sI7515
I772
sI99543
I10551
sI40292
I4232
sI40293
I4233
sI105831
I11238
sI105832
I11239
sI40298
I4234
sI40299
I4235
sI7532
I773
sI7533
I774
sI102817
I10912
sI73074
I7736
sI94099
I9978
sI7541
I775
sI7543
I776
sI40318
I4236
sI7558
I777
sI7563
I778
sI7564
I779
sI111547
I11855
sI73103
I7737
sI40340
I4237
sI7577
I780
sI40346
I4238
sI7580
I781
sI73118
I7738
sI7583
I782
sI40352
I4239
sI7585
I783
sI105890
I11243
sI94107
I9979
sI7588
I784
sI105894
I11244
sI73127
I7739
sI40360
I4240
sI7595
I785
sI105900
I11246
sI40368
I4241
sI7601
I786
sI7602
I787
sI7603
I788
sI40372
I4242
sI105911
I11247
sI40376
I4243
sI115956
I12325
sI40381
I4244
sI7615
I789
sI73153
I7741
sI105924
I11249
sI66806
I7071
sI73160
I7742
sI40393
I4245
sI105930
I11250
sI66807
I7072
sI105933
I11251
sI105934
I11252
sI118096
I12538
sI83192
I8833
sI40408
I4246
sI40409
I4247
sI7642
I791
sI7645
I792
sI40414
I4248
sI7647
I793
sI105953
I11254
sI73188
I7744
sI73189
I7745
sI105958
I11255
sI40423
I4249
sI7656
I794
sI7657
I795
sI73195
I7746
sI105965
I11257
sI7662
I796
sI105968
I11258
sI40433
I4250
sI88659
I9399
sI7668
I797
sI34046
I3597
sI73210
I7747
sI73213
I7748
sI44971
I4751
sI105046
I11143
sI40456
I4251
sI73225
I7749
sI7692
I799
sI40462
I4252
sI7695
I800
sI73236
I7751
sI7705
I801
sI7706
I802
sI73245
I7752
sI40479
I4253
sI44976
I4753
sI40485
I4254
sI106023
I11260
sI40490
I4255
sI61362
I6484
sI73262
I7753
sI73263
I7754
sI40497
I4256
sI7730
I803
sI40501
I4257
sI40506
I4258
sI40513
I4259
sI7747
I804
sI40517
I4260
sI7752
I805
sI40524
I4261
sI72290
I7664
sI99597
I10556
sI123556
I13110
sI106068
I11263
sI34062
I3598
sI7768
I807
sI7769
I808
sI40538
I4262
sI40539
I4263
sI73309
I7755
sI7776
I810
sI73313
I7757
sI73317
I7758
sI40550
I4264
sI7783
I811
sI73320
I7759
sI73321
I7760
sI121447
I12905
sI7792
I812
sI73330
I7761
sI7796
I813
sI73335
I7762
sI106105
I11268
sI73338
I7763
sI7803
I814
sI83221
I8836
sI119193
I12667
sI7809
I815
sI40578
I4265
sI40579
I4266
sI106118
I11270
sI7819
I816
sI7820
I817
sI40590
I4267
sI106128
I11271
sI73365
I7764
sI106134
I11272
sI112647
I11976
sI73369
I7765
sI7837
I818
sI73377
I7766
sI40610
I4268
sI77740
I8263
sI73381
I7768
sI40618
I4269
sI44999
I4755
sI106162
I11273
sI72307
I7667
sI40629
I4270
sI40635
I4271
sI7871
I820
sI40642
I4272
sI40643
I4273
sI7876
I821
sI73413
I7769
sI106182
I11275
sI106185
I11276
sI72311
I7669
sI73420
I7770
sI40654
I4274
sI40655
I4275
sI7888
I822
sI73426
I7771
sI7897
I823
sI106205
I11277
sI40670
I4276
sI106207
I11278
sI40673
I4277
sI7906
I824
sI105083
I11147
sI73447
I7772
sI73460
I7773
sI86463
I9174
sI7926
I825
sI7931
I826
sI7934
I827
sI40704
I4278
sI106243
I11281
sI73479
I7775
sI40716
I4279
sI103922
I11020
sI106258
I11282
sI105091
I11148
sI106262
I11283
sI110553
I11749
sI106268
I11284
sI106270
I11285
sI40739
I4280
sI40740
I4281
sI7973
I830
sI7979
I831
sI121381
I12899
sI7983
I832
sI7986
I833
sI73523
I7779
sI40756
I4282
sI106295
I11287
sI73535
I7780
sI40769
I4283
sI73539
I7782
sI73540
I7783
sI40777
I4284
sI40782
I4285
sI106319
I11291
sI116024
I12332
sI40789
I4286
sI73558
I7785
sI106330
I11293
sI8028
I835
sI106334
I11294
sI106336
I11295
sI40801
I4287
sI8034
I836
sI73572
I7786
sI110566
I11750
sI8038
I837
sI73580
I7788
sI73583
I7789
sI73584
I7790
sI8050
I838
sI40824
I4288
sI40826
I4289
sI40827
I4290
sI106366
I11296
sI121493
I12910
sI8064
I839
sI40833
I4291
sI50497
I5347
sI73610
I7791
sI40844
I4292
sI8078
I840
sI106383
I11297
sI108291
I11503
sI8089
I841
sI73626
I7793
sI40859
I4293
sI106397
I11298
sI73632
I7794
sI66886
I7081
sI73638
I7795
sI40873
I4294
sI34119
I3604
sI8108
I842
sI40878
I4295
sI8112
I843
sI84725
I8985
sI8115
I844
sI8118
I845
sI8119
I846
sI98472
I10446
sI8125
I847
sI73663
I7799
sI40897
I4296
sI8132
I848
sI73669
I7800
sI40904
I4297
sI73673
I7801
sI40910
I4298
sI83277
I8841
sI40915
I4299
sI40916
I4300
sI116046
I12336
sI8151
I850
sI8153
I851
sI106458
I11302
sI40923
I4301
sI106462
I11303
sI106466
I11304
sI106467
I11305
sI73703
I7803
sI106472
I11306
sI40939
I4302
sI8173
I853
sI106478
I11308
sI106481
I11309
sI8182
I854
sI73378
I7767
sI73722
I7804
sI106492
I11311
sI73727
I7805
sI40960
I4303
sI73729
I7806
sI126977
I13475
sI40969
I4304
sI106512
I11312
sI106515
I11313
sI40981
I4305
sI40982
I4306
sI106521
I11314
sI8219
I855
sI40988
I4307
sI8221
I856
sI73758
I7807
sI73759
I7808
sI8225
I857
sI40994
I4309
sI73763
I7809
sI106532
I11316
sI8229
I858
sI106534
I11318
sI40999
I4310
sI73769
I7811
sI106540
I11320
sI106541
I11321
sI8239
I859
sI73779
I7812
sI73780
I7813
sI8246
I860
sI41016
I4311
sI73786
I7814
sI83295
I8843
sI8252
I861
sI41021
I4312
sI41022
I4313
sI106561
I11322
sI41027
I4314
sI73796
I7815
sI73797
I7816
sI41035
I4315
sI41037
I4316
sI126989
I13476
sI41040
I4317
sI8274
I862
sI106580
I11324
sI66916
I7083
sI73819
I7817
sI41054
I4319
sI116069
I12337
sI8288
I863
sI119209
I12671
sI41060
I4320
sI8293
I864
sI73836
I7818
sI106607
I11326
sI73843
I7819
sI106614
I11327
sI41079
I4321
sI73850
I7820
sI8315
I865
sI41084
I4322
sI73853
I7822
sI45077
I4767
sI106626
I11329
sI100875
I10702
sI8324
I866
sI41094
I4323
sI96947
I10274
sI41098
I4324
sI41102
I4325
sI72292
I7665
sI41110
I4326
sI103935
I11021
sI8346
I867
sI8350
I868
sI93892
I9954
sI127003
I13478
sI106661
I11331
sI41128
I4328
sI73898
I7823
sI41131
I4329
sI106668
I11332
sI50546
I5353
sI106670
I11333
sI8369
I869
sI83315
I8846
sI73908
I7824
sI41142
I4330
sI73913
I7825
sI8378
I870
sI41148
I4331
sI8382
I871
sI106688
I11336
sI8385
I872
sI73922
I7828
sI41157
I4332
sI73926
I7829
sI106695
I11337
sI116087
I12340
sI73934
I7830
sI41169
I4333
sI8403
I873
sI106713
I11339
sI73946
I7831
sI41181
I4334
sI41183
I4335
sI8416
I874
sI106722
I11341
sI41189
I4336
sI8422
I875
sI8427
I876
sI106732
I11342
sI41199
I4337
sI8432
I877
sI106737
I11343
sI8435
I878
sI41205
I4338
sI41208
I4339
sI8441
I879
sI106746
I11346
sI8443
I880
sI73981
I7833
sI121557
I12914
sI41225
I4340
sI73995
I7834
sI8466
I881
sI66947
I7087
sI74004
I7835
sI41237
I4341
sI106778
I11347
sI41251
I4342
sI74020
I7836
sI66950
I7088
sI106790
I11348
sI41255
I4343
sI8491
I882
sI74031
I7837
sI106806
I11350
sI8503
I883
sI106808
I11351
sI8505
I884
sI8506
I885
sI41275
I4344
sI8512
I886
sI74049
I7838
sI8514
I887
sI74051
I7839
sI41284
I4345
sI74055
I7840
sI41288
I4346
sI41289
I4347
sI8523
I888
sI106829
I11353
sI66957
I7090
sI41301
I4348
sI41311
I4349
sI8545
I889
sI74083
I7841
sI106853
I11354
sI41318
I4350
sI116113
I12343
sI106857
I11355
sI99730
I10567
sI94122
I9982
sI8560
I890
sI56040
I5937
sI8563
I891
sI41334
I4351
sI8567
I892
sI123572
I13112
sI106874
I11357
sI74107
I7843
sI41343
I4352
sI41349
I4353
sI74118
I7844
sI6892
I717
sI74125
I7845
sI41360
I4354
sI8594
I893
sI8596
I894
sI41365
I4355
sI106905
I11358
sI74138
I7847
sI74149
I7848
sI41382
I4356
sI105201
I11158
sI8616
I895
sI74155
I7849
sI8620
I896
sI41391
I4357
sI74160
I7850
sI41394
I4358
sI121587
I12917
sI106935
I11361
sI74170
I7851
sI41403
I4359
sI74174
I7852
sI88821
I9416
sI8640
I897
sI74179
I7853
sI74181
I7854
sI41415
I4360
sI41421
I4361
sI74194
I7856
sI116131
I12346
sI41432
I4362
sI106969
I11363
sI74202
I7857
sI110671
I11766
sI71212
I7546
sI41441
I4363
sI106980
I11364
sI17830
I1848
sI74214
I7858
sI74218
I7859
sI41452
I4364
sI74221
I7860
sI8686
I898
sI41461
I4365
sI74230
I7861
sI8695
I899
sI41465
I4366
sI107002
I11368
sI8701
I900
sI8704
I901
sI74242
I7864
sI116139
I12347
sI8708
I902
sI107014
I11369
sI99756
I10569
sI107018
I11370
sI74253
I7865
sI8724
I903
sI41494
I4367
sI107031
I11372
sI74264
I7866
sI74268
I7867
sI12378
I1284
sI8735
I904
sI8736
I905
sI66992
I7096
sI8743
I906
sI74287
I7868
sI74288
I7869
sI41522
I4368
sI74292
I7870
sI74299
I7871
sI41532
I4369
sI107070
I11375
sI107074
I11376
sI110496
I11739
sI41544
I4370
sI8777
I907
sI74314
I7872
sI74317
I7873
sI74318
I7874
sI94307
I10003
sI120777
I12828
sI8791
I908
sI74328
I7876
sI103950
I11023
sI41565
I4372
sI74335
I7878
sI8800
I909
sI74340
I7879
sI41575
I4373
sI74344
I7880
sI65761
I6950
sI8813
I910
sI123591
I13113
sI41583
I4374
sI41584
I4375
sI41590
I4376
sI8826
I911
sI107137
I11379
sI127083
I13491
sI74372
I7882
sI8837
I912
sI100442
I10645
sI107144
I11380
sI8841
I913
sI107146
I11381
sI41611
I4377
sI8846
I914
sI41615
I4378
sI74384
I7883
sI74388
I7884
sI41621
I4379
sI8856
I915
sI107161
I11382
sI74395
I7885
sI41628
I4380
sI74397
I7886
sI74398
I7887
sI41632
I4381
sI107170
I11383
sI8867
I916
sI41636
I4382
sI8869
I917
sI115955
I12324
sI107178
I11385
sI107180
I11386
sI107181
I11387
sI74415
I7888
sI106989
I11365
sI83400
I8856
sI94323
I10005
sI103953
I11024
sI8886
I918
sI34249
I3619
sI107193
I11389
sI74426
I7889
sI107195
I11390
sI8893
I919
sI41662
I4383
sI8896
I920
sI41667
I4384
sI41669
I4385
sI107208
I11392
sI41675
I4386
sI8909
I921
sI74449
I7892
sI107220
I11393
sI107223
I11394
sI8920
I922
sI74457
I7893
sI107228
I11396
sI107229
I11397
sI8928
I923
sI41703
I4389
sI74472
I7894
sI41710
I4390
sI8944
I924
sI41721
I4391
sI74493
I7895
sI41726
I4392
sI8960
I925
sI107266
I11398
sI41738
I4393
sI41739
I4394
sI41740
I4395
sI41741
I4396
sI74510
I7897
sI74513
I7898
sI77955
I8274
sI8980
I927
sI74518
I7900
sI8985
I928
sI108321
I11508
sI74496
I7896
sI8992
I929
sI8997
I930
sI116188
I12352
sI107309
I11401
sI107310
I11402
sI41778
I4397
sI99806
I10573
sI9016
I931
sI9018
I932
sI99807
I10574
sI9020
I933
sI74557
I7901
sI74562
I7902
sI74567
I7903
sI78862
I8375
sI74571
I7904
sI74572
I7905
sI9040
I934
sI118143
I12542
sI41813
I4399
sI9050
I935
sI107355
I11403
sI41824
I4400
sI41825
I4401
sI9058
I936
sI9059
I937
sI9063
I938
sI74603
I7907
sI74605
I7908
sI107374
I11405
sI41839
I4402
sI41841
I4403
sI118144
I12543
sI74611
I7909
sI74612
I7910
sI41846
I4404
sI74616
I7912
sI74617
I7913
sI57041
I6037
sI74622
I7914
sI9087
I939
sI74625
I7915
sI74626
I7916
sI41864
I4405
sI74636
I7918
sI41869
I4406
sI41873
I4407
sI41877
I4408
sI41879
I4409
sI9117
I940
sI9118
I941
sI74656
I7921
sI107425
I11409
sI88902
I9428
sI41894
I4410
sI41899
I4411
sI107438
I11411
sI41907
I4412
sI82139
I8721
sI107448
I11412
sI9147
I942
sI74684
I7922
sI105290
I11174
sI41919
I4413
sI41920
I4414
sI9154
I943
sI9155
I944
sI120329
I12783
sI107468
I11414
sI74701
I7923
sI41937
I4415
sI107475
I11415
sI74710
I7924
sI67065
I7100
sI9177
I945
sI107482
I11416
sI9181
I946
sI78867
I8376
sI74722
I7925
sI41958
I4416
sI6993
I725
sI74729
I7926
sI41962
I4417
sI9199
I947
sI107504
I11418
sI41971
I4418
sI74740
I7928
sI107509
I11419
sI74742
I7929
sI9214
I948
sI120331
I12784
sI107522
I11420
sI9219
I949
sI9221
I950
sI107526
I11421
sI9228
I951
sI41997
I4420
sI42000
I4421
sI9234
I952
sI50691
I5371
sI9237
I953
sI107542
I11423
sI42010
I4422
sI42018
I4423
sI9252
I954
sI42022
I4425
sI9255
I955
sI42028
I4426
sI42029
I4427
sI42030
I4428
sI42032
I4429
sI9268
I956
sI74805
I7933
sI127156
I13497
sI121695
I12926
sI9282
I957
sI74820
I7934
sI42053
I4430
sI9287
I958
sI9290
I959
sI42060
I4431
sI83469
I8865
sI9298
I960
sI9302
I961
sI9307
I962
sI9309
I963
sI9316
I964
sI9317
I965
sI42086
I4432
sI107623
I11427
sI74856
I7938
sI74863
I7939
sI42099
I4433
sI9332
I966
sI9333
I967
sI67092
I7104
sI42107
I4434
sI102185
I10843
sI9342
I968
sI9343
I969
sI74883
I7942
sI42116
I4435
sI107654
I11429
sI127169
I13500
sI74890
I7943
sI42128
I4436
sI74900
I7944
sI42133
I4437
sI9368
I970
sI74907
I7945
sI107676
I11430
sI9373
I971
sI9376
I972
sI42145
I4438
sI107684
I11431
sI78022
I8279
sI74918
I7946
sI9383
I973
sI9387
I974
sI9388
I975
sI9390
I976
sI107695
I11432
sI42161
I4439
sI9394
I977
sI9398
I978
sI117249
I12459
sI9402
I979
sI107707
I11433
sI9404
I980
sI42173
I4440
sI9407
I981
sI74945
I7949
sI74946
I7950
sI107715
I11435
sI74948
I7951
sI107717
I11437
sI9416
I982
sI42188
I4441
sI42194
I4442
sI9427
I983
sI74964
I7954
sI42197
I4443
sI74967
I7955
sI34340
I3629
sI109427
I11627
sI107740
I11438
sI88954
I9436
sI99877
I10582
sI74976
I7956
sI42209
I4444
sI105339
I11179
sI107750
I11440
sI9447
I984
sI107753
I11442
sI9461
I985
sI42230
I4445
sI107768
I11443
sI42236
I4446
sI9470
I986
sI42240
I4447
sI9473
I987
sI42245
I4449
sI67116
I7107
sI126415
I13412
sI75019
I7957
sI42252
I4450
sI9487
I988
sI9489
I989
sI9491
I990
sI9493
I991
sI72580
I7693
sI107802
I11445
sI107804
I11446
sI75037
I7958
sI107806
I11447
sI42271
I4452
sI107809
I11448
sI94427
I10013
sI9511
I992
sI9513
I993
sI9519
I994
sI42291
I4453
sI107829
I11449
sI72585
I7694
sI9529
I995
sI9531
I996
sI75070
I7962
sI17973
I1870
sI107840
I11451
sI75078
I7964
sI42313
I4454
sI107853
I11452
sI75086
I7965
sI118160
I12546
sI75092
I7966
sI42325
I4455
sI9558
I997
sI75097
I7967
sI75099
I7968
sI105466
I11192
sI75102
I7969
sI107872
I11453
sI75108
I7970
sI9573
I998
sI107878
I11454
sI105361
I11180
sI9579
I999
sI75117
I7971
sI9585
I1000
sI107891
I11455
sI75125
I7972
sI74516
I7899
sI107895
I11456
sI9592
I1001
sI107899
I11457
sI42364
I4457
sI9599
I1002
sI9602
I1003
sI107908
I11458
sI126891
I13469
sI42382
I4458
sI42383
I4459
sI42384
I4460
sI9618
I1004
sI42387
I4461
sI9621
I1005
sI9623
I1006
sI98522
I10457
sI9629
I1007
sI9631
I1008
sI42400
I4462
sI75169
I7978
sI75171
I7979
sI107941
I11460
sI119254
I12676
sI42410
I4463
sI9645
I1009
sI42414
I4464
sI42418
I4465
sI94451
I10018
sI121758
I12931
sI9657
I1010
sI9660
I1011
sI75197
I7981
sI75199
I7982
sI107969
I11463
sI116299
I12366
sI9670
I1012
sI121761
I12932
sI107977
I11464
sI9675
I1013
sI42446
I4466
sI9679
I1014
sI42449
I4467
sI42450
I4468
sI75219
I7983
sI42452
I4469
sI42454
I4470
sI42456
I4471
sI42457
I4472
sI42466
I4473
sI108012
I11466
sI108014
I11467
sI75249
I7985
sI75250
I7986
sI116307
I12368
sI9716
I1015
sI42485
I4474
sI108022
I11468
sI42489
I4475
sI127231
I13506
sI108029
I11469
sI42494
I4476
sI108031
I11470
sI9728
I1016
sI78080
I8288
sI9731
I1017
sI42500
I4477
sI9733
I1018
sI108039
I11471
sI9736
I1019
sI75273
I7989
sI9738
I1020
sI9739
I1021
sI94466
I10020
sI42510
I4478
sI42511
I4479
sI42512
I4480
sI97435
I10333
sI126635
I13436
sI75292
I7990
sI9757
I1022
sI9760
I1023
sI9761
I1024
sI108067
I11472
sI9764
I1025
sI9765
I1026
sI9772
I1027
sI106165
I11274
sI42548
I4481
sI75318
I7991
sI75320
I7992
sI42553
I4482
sI42554
I4483
sI75326
I7993
sI75327
I7994
sI108096
I11474
sI42561
I4484
sI42562
I4485
sI129254
I13718
sI42566
I4486
sI108103
I11476
sI42574
I4487
sI42583
I4488
sI116324
I12371
sI110863
I11781
sI42588
I4489
sI9821
I1028
sI42590
I4490
sI108127
I11477
sI42592
I4491
sI9827
I1029
sI42596
I4492
sI108135
I11479
sI42600
I4493
sI89800
I9531
sI108142
I11480
sI42607
I4494
sI108144
I11481
sI127251
I13508
sI9845
I1030
sI105407
I11185
sI9856
I1031
sI9858
I1032
sI75396
I7996
sI9861
I1033
sI108166
I11483
sI108171
I11484
sI42636
I4495
sI42641
I4496
sI42643
I4497
sI108184
I11487
sI108187
I11488
sI42653
I4498
sI105413
I11187
sI42658
I4499
sI9891
I1034
sI75429
I7998
sI42662
I4500
sI42663
I4501
sI108200
I11490
sI94492
I10024
sI9902
I1035
sI9905
I1036
sI42675
I4502
sI108214
I11492
sI108215
I11493
sI108217
I11494
sI9914
I1038
sI42683
I4503
sI42688
I4504
sI75457
I7999
sI108226
I11496
sI75459
I8000
sI9925
I1039
sI9926
I1040
sI116343
I12375
sI42700
I4505
sI75470
I8001
sI72653
I7698
sI9940
I1041
sI110535
I11747
sI9945
I1042
sI75482
I8002
sI75619
I8022
sI42717
I4506
sI9951
I1043
sI42722
I4508
sI75491
I8004
sI9959
I1044
sI75496
I8005
sI108266
I11501
sI75499
I8006
sI108268
I11502
sI9967
I1045
sI52706
I5587
sI9972
I1046
sI83582
I8879
sI42742
I4509
sI42745
I4510
sI42748
I4511
sI42749
I4512
sI9982
I1047
sI9984
I1048
sI75521
I8008
sI75522
I8009
sI75523
I8010
sI108293
I11504
sI9993
I1049
sI42762
I4514
sI108302
I11505
sI75535
I8011
sI42768
I4515
sI42771
I4516
sI42773
I4517
sI75543
I8012
sI108313
I11506
sI10013
I1050
sI75551
I8013
sI108320
I11507
sI42785
I4518
sI10023
I1051
sI42792
I4520
sI75562
I8014
sI10027
I1052
sI108332
I11510
sI10029
I1053
sI108337
I11511
sI93080
I9869
sI12595
I1301
sI10043
I1054
sI42812
I4521
sI75582
I8015
sI75584
I8016
sI75589
I8017
sI10055
I1055
sI75593
I8018
sI75594
I8019
sI42827
I4522
sI10060
I1056
sI110539
I11748
sI42831
I4523
sI42833
I4524
sI42834
I4525
sI10067
I1057
sI108372
I11517
sI75608
I8020
sI121828
I12942
sI75610
I8021
sI108379
I11518
sI61754
I6520
sI42850
I4526
sI42851
I4527
sI75623
I8023
sI127998
I13583
sI42858
I4528
sI89063
I9449
sI42861
I4529
sI75632
I8025
sI108401
I11520
sI10101
I1058
sI75639
I8026
sI67220
I7116
sI108414
I11522
sI108415
I11523
sI42883
I4530
sI45377
I4801
sI10120
I1059
sI108426
I11524
sI10123
I1060
sI42893
I4531
sI42896
I4532
sI108433
I11525
sI75672
I8027
sI10139
I1061
sI83610
I8881
sI108446
I11526
sI10145
I1062
sI52169
I5524
sI108453
I11527
sI42919
I4533
sI108456
I11528
sI78151
I8298
sI10156
I1063
sI75695
I8028
sI108465
I11530
sI42932
I4534
sI99998
I10595
sI75702
I8029
sI75704
I8030
sI75705
I8031
sI108474
I11533
sI42941
I4535
sI75711
I8032
sI10178
I1064
sI108484
I11534
sI42950
I4536
sI75719
I8033
sI108488
I11536
sI42960
I4537
sI75729
I8034
sI42965
I4538
sI10199
I1065
sI34468
I3640
sI10205
I1066
sI108512
I11537
sI108513
I11538
sI75746
I8035
sI75748
I8036
sI75749
I8037
sI108518
I11540
sI42986
I4539
sI75755
I8038
sI108530
I11541
sI78163
I8302
sI10229
I1067
sI94548
I10028
sI108543
I11542
sI43013
I4540
sI108551
I11543
sI75786
I8039
sI10252
I1068
sI75790
I8040
sI75794
I8041
sI108563
I11544
sI10260
I1069
sI75798
I8043
sI75800
I8044
sI43033
I4541
sI10266
I1070
sI75803
I8045
sI10269
I1071
sI43038
I4542
sI75808
I8046
sI10273
I1072
sI108579
I11546
sI75813
I8047
sI10279
I1073
sI108585
I11547
sI108586
I11548
sI108587
I11549
sI75820
I8048
sI10290
I1074
sI10291
I1075
sI10295
I1076
sI10296
I1077
sI43065
I4544
sI75835
I8050
sI108606
I11551
sI100021
I10598
sI43072
I4545
sI75842
I8052
sI75845
I8053
sI10312
I1078
sI10313
I1079
sI10315
I1080
sI12642
I1307
sI43095
I4546
sI10330
I1081
sI75870
I8056
sI10338
I1082
sI10343
I1083
sI43112
I4547
sI108650
I11553
sI75887
I8057
sI127018
I13481
sI83646
I8887
sI108668
I11554
sI10366
I1084
sI63354
I6684
sI121878
I12946
sI75911
I8058
sI75912
I8059
sI75914
I8060
sI43151
I4549
sI10384
I1085
sI108690
I11556
sI108698
I11557
sI75932
I8062
sI50886
I5391
sI43175
I4550
sI43177
I4551
sI75947
I8063
sI75953
I8064
sI121886
I12947
sI43193
I4552
sI43195
I4553
sI10433
I1086
sI43202
I4555
sI108742
I11560
sI75975
I8065
sI10441
I1087
sI43211
I4557
sI10445
I1088
sI75983
I8066
sI43220
I4558
sI75989
I8067
sI43222
I4559
sI10459
I1089
sI108370
I11516
sI12666
I1311
sI10462
I1090
sI43233
I4560
sI43237
I4561
sI10470
I1091
sI108775
I11562
sI105511
I11200
sI43245
I4562
sI76014
I8068
sI108784
I11564
sI108786
I11565
sI43252
I4563
sI76021
I8069
sI108796
I11567
sI108798
I11568
sI76031
I8070
sI89822
I9533
sI76035
I8071
sI10501
I1092
sI76039
I8072
sI105516
I11202
sI43277
I4564
sI43281
I4565
sI76050
I8074
sI43286
I4566
sI10519
I1093
sI10521
I1094
sI43290
I4567
sI43293
I4568
sI108831
I11570
sI10528
I1095
sI10529
I1096
sI10531
I1097
sI76069
I8075
sI76070
I8076
sI10537
I1098
sI43308
I4570
sI43309
I4571
sI43313
I4572
sI67295
I7120
sI43324
I4573
sI76094
I8077
sI10559
I1099
sI67296
I7121
sI105100
I11150
sI76101
I8078
sI10566
I1100
sI10569
I1101
sI76106
I8079
sI43340
I4574
sI10573
I1102
sI10574
I1103
sI76112
I8081
sI105528
I11205
sI43348
I4575
sI108886
I11572
sI76120
I8082
sI43354
I4576
sI43355
I4577
sI43356
I4578
sI72367
I7677
sI43358
I4579
sI108895
I11573
sI10592
I1104
sI76135
I8084
sI121916
I12950
sI43370
I4580
sI10603
I1105
sI108909
I11575
sI76142
I8085
sI108912
I11576
sI43379
I4581
sI107284
I11400
sI108919
I11577
sI10617
I1106
sI76154
I8086
sI43387
I4582
sI108925
I11578
sI108928
I11579
sI121920
I12951
sI76166
I8087
sI108944
I11580
sI76177
I8088
sI43413
I4583
sI78233
I8312
sI10649
I1107
sI10652
I1108
sI105722
I11227
sI108960
I11581
sI43428
I4584
sI76200
I8089
sI125550
I13321
sI10669
I1110
sI78237
I8314
sI43441
I4585
sI43442
I4586
sI108979
I11583
sI108983
I11584
sI10681
I1111
sI108988
I11586
sI115719
I12300
sI111802
I11881
sI108994
I11587
sI10692
I1112
sI116470
I12385
sI45473
I4811
sI76236
I8090
sI43469
I4587
sI76238
I8092
sI109007
I11588
sI76240
I8093
sI109012
I11589
sI89166
I9463
sI43478
I4588
sI76247
I8094
sI105551
I11206
sI43484
I4589
sI43485
I4590
sI43488
I4591
sI121936
I12954
sI10727
I1113
sI10731
I1114
sI10734
I1115
sI10735
I1116
sI43504
I4593
sI43505
I4594
sI76278
I8097
sI10749
I1118
sI109056
I11592
sI43521
I4595
sI43525
I4596
sI43527
I4597
sI10760
I1119
sI76299
I8099
sI83714
I8896
sI105560
I11209
sI43539
I4598
sI130203
I13816
sI10773
I1120
sI10777
I1121
sI109082
I11593
sI10788
I1122
sI109093
I11594
sI10791
I1123
sI43562
I4599
sI10796
I1124
sI109184
I11605
sI116488
I12390
sI10802
I1125
sI76339
I8101
sI43573
I4600
sI94645
I10039
sI10818
I1126
sI109123
I11596
sI43590
I4601
sI76360
I8102
sI109129
I11597
sI109135
I11598
sI10833
I1127
sI76372
I8104
sI76373
I8105
sI10838
I1128
sI61881
I6530
sI76376
I8106
sI76378
I8107
sI43611
I4603
sI76380
I8108
sI121957
I12957
sI43617
I4604
sI10850
I1129
sI76389
I8109
sI83729
I8898
sI121959
I12958
sI109165
I11601
sI43632
I4605
sI109170
I11602
sI109171
I11603
sI76407
I8111
sI43640
I4606
sI43642
I4607
sI76414
I8112
sI10880
I1130
sI76418
I8113
sI43653
I4608
sI43658
I4609
sI43660
I4610
sI43664
I4611
sI109202
I11608
sI127427
I13525
sI76439
I8115
sI10904
I1131
sI93109
I9875
sI43674
I4612
sI109213
I11609
sI94661
I10040
sI109220
I11610
sI76453
I8116
sI43687
I4613
sI83740
I8899
sI43691
I4614
sI10924
I1132
sI76461
I8118
sI43695
I4616
sI43697
I4617
sI10931
I1133
sI43702
I4618
sI76471
I8119
sI76473
I8120
sI43708
I4619
sI61898
I6532
sI10942
I1134
sI109256
I11613
sI121975
I12960
sI109260
I11614
sI10957
I1135
sI127437
I13527
sI105592
I11214
sI10964
I1136
sI109271
I11615
sI43736
I4620
sI43740
I4621
sI43741
I4622
sI109278
I11617
sI76512
I8123
sI10978
I1137
sI109283
I11618
sI10986
I1138
sI116519
I12392
sI10988
I1139
sI10991
I1140
sI85474
I9068
sI76530
I8125
sI76531
I8126
sI109303
I11619
sI11000
I1141
sI11006
I1142
sI76544
I8127
sI11013
I1143
sI76550
I8128
sI43786
I4623
sI127447
I13530
sI76556
I8129
sI76560
I8130
sI61912
I6534
sI76562
I8131
sI11027
I1144
sI109334
I11620
sI76572
I8132
sI43805
I4624
sI43808
I4625
sI43809
I4626
sI109346
I11621
sI109347
I11622
sI11045
I1146
sI95296
I10101
sI43819
I4628
sI76588
I8134
sI76589
I8135
sI127453
I13532
sI43824
I4629
sI11062
I1147
sI43833
I4630
sI11068
I1148
sI11076
I1149
sI11077
I1150
sI11079
I1151
sI76617
I8138
sI76623
I8139
sI76625
I8140
sI109398
I11625
sI109401
I11626
sI43866
I4631
sI43868
I4632
sI76637
I8141
sI94693
I10047
sI76640
I8142
sI11111
I1152
sI43889
I4634
sI76659
I8143
sI110932
I11788
sI11127
I1153
sI76666
I8144
sI11133
I1154
sI43902
I4635
sI109439
I11629
sI76673
I8145
sI109444
I11630
sI105622
I11218
sI11142
I1155
sI109448
I11631
sI11145
I1156
sI76683
I8146
sI11148
I1157
sI43919
I4637
sI11156
I1158
sI11161
I1159
sI43930
I4638
sI43933
I4639
sI11168
I1160
sI43938
I4640
sI76707
I8148
sI109480
I11632
sI76713
I8149
sI11178
I1161
sI109486
I11633
sI76721
I8150
sI43957
I4641
sI43960
I4642
sI76729
I8151
sI11194
I1162
sI11199
I1163
sI76736
I8152
sI11203
I1164
sI76741
I8153
sI76742
I8154
sI11210
I1165
sI76748
I8155
sI7330
I758
sI77326
I8215
sI43984
I4643
sI43987
I4644
sI76756
I8156
sI76757
I8157
sI76758
I8158
sI43991
I4645
sI43993
I4646
sI105637
I11219
sI76770
I8159
sI109539
I11638
sI118216
I12552
sI44006
I4647
sI116561
I12400
sI117125
I12450
sI76779
I8160
sI109552
I11639
sI76789
I8161
sI11254
I1166
sI72874
I7719
sI11262
I1167
sI76800
I8162
sI1878
I193
sI44040
I4648
sI44044
I4649
sI127490
I13537
sI109582
I11641
sI76817
I8163
sI76820
I8164
sI44053
I4650
sI11289
I1169
sI72879
I7720
sI76832
I8165
sI11300
I1170
sI11302
I1171
sI109607
I11644
sI44072
I4652
sI11305
I1172
sI76842
I8166
sI111111
I11799
sI109614
I11645
sI11311
I1173
sI76848
I8167
sI44083
I4653
sI109620
I11647
sI11318
I1175
sI11319
I1176
sI109625
I11648
sI83807
I8903
sI76862
I8168
sI109632
I11649
sI76866
I8169
sI76869
I8170
sI109640
I11650
sI44106
I4655
sI11341
I1177
sI109646
I11652
sI11345
I1178
sI122919
I13057
sI104035
I11037
sI11350
I1179
sI115298
I12249
sI76892
I8172
sI12816
I1327
sI11363
I1180
sI11364
I1181
sI44133
I4658
sI11368
I1182
sI44137
I4659
sI76909
I8175
sI44142
I4660
sI44146
I4661
sI11383
I1183
sI76921
I8176
sI109690
I11653
sI76924
I8177
sI83305
I8844
sI76928
I8178
sI44161
I4662
sI44162
I4663
sI105665
I11221
sI109706
I11655
sI44173
I4664
sI100205
I10614
sI76945
I8180
sI11411
I1184
sI76949
I8181
sI11414
I1185
sI44183
I4665
sI76954
I8182
sI44188
I4666
sI44195
I4667
sI109733
I11656
sI11430
I1186
sI44200
I4668
sI109737
I11657
sI44203
I4669
sI67442
I7137
sI78365
I8326
sI76979
I8184
sI100765
I10688
sI44223
I4670
sI11457
I1188
sI44226
I4671
sI89291
I9478
sI109765
I11659
sI113859
I12110
sI89292
I9479
sI44237
I4672
sI77006
I8185
sI11472
I1189
sI77010
I8186
sI44245
I4673
sI77014
I8187
sI34681
I3669
sI44252
I4674
sI44259
I4675
sI77028
I8188
sI109798
I11661
sI109801
I11662
sI11499
I1190
sI128045
I13585
sI44270
I4676
sI109811
I11663
sI109812
I11664
sI18302
I1904
sI77050
I8189
sI77052
I8190
sI11519
I1191
sI109824
I11665
sI109826
I11666
sI77060
I8191
sI89302
I9480
sI11526
I1192
sI11529
I1193
sI44298
I4677
sI72919
I7723
sI44304
I4678
sI66943
I7086
sI109846
I11668
sI11548
I1194
sI122074
I12970
sI109856
I11669
sI77095
I8194
sI11562
I1195
sI11563
I1196
sI109868
I11671
sI68035
I7212
sI108407
I11521
sI109876
I11672
sI11573
I1197
sI11574
I1198
sI44348
I4679
sI11581
I1199
sI44350
I4680
sI44353
I4681
sI11586
I1200
sI44360
I4682
sI44361
I4683
sI77131
I8199
sI44364
I4684
sI11601
I1201
sI72931
I7724
sI11604
I1202
sI44374
I4686
sI12857
I1332
sI11608
I1203
sI11611
I1204
sI11612
I1205
sI44381
I4687
sI44385
I4688
sI11620
I1206
sI109926
I11679
sI109928
I11680
sI62012
I6545
sI11626
I1207
sI44397
I4689
sI77166
I8201
sI44399
I4690
sI11633
I1208
sI62014
I6546
sI11639
I1209
sI44410
I4691
sI11648
I1211
sI44418
I4692
sI109958
I11681
sI44424
I4693
sI44425
I4694
sI77195
I8203
sI109966
I11683
sI77199
I8204
sI67480
I7140
sI127555
I13543
sI44438
I4695
sI44442
I4696
sI11677
I1212
sI44446
I4697
sI11683
I1213
sI109990
I11684
sI44456
I4698
sI44461
I4699
sI110001
I11685
sI116638
I12413
sI11704
I1214
sI11706
I1215
sI110011
I11686
sI11708
I1216
sI77245
I8206
sI110014
I11688
sI11714
I1217
sI44485
I4700
sI11719
I1218
sI11720
I1219
sI94796
I10052
sI110026
I11689
sI11723
I1220
sI11725
I1221
sI110030
I11690
sI11727
I1222
sI110032
I11692
sI11729
I1223
sI77266
I8207
sI77270
I8208
sI77273
I8209
sI44507
I4701
sI11741
I1224
sI11743
I1225
sI44512
I4702
sI110050
I11693
sI122107
I12971
sI78417
I8332
sI44520
I4703
sI11753
I1227
sI122109
I12972
sI67496
I7142
sI44530
I4704
sI77302
I8211
sI11767
I1228
sI110072
I11695
sI11769
I1229
sI110076
I11696
sI44542
I4705
sI11775
I1230
sI77312
I8212
sI110081
I11697
sI44548
I4706
sI77317
I8213
sI77318
I8214
sI11785
I1231
sI44554
I4707
sI90666
I9618
sI44556
I4708
sI44558
I4709
sI34733
I3676
sI44562
I4710
sI44563
I4711
sI77332
I8216
sI44569
I4712
sI44572
I4713
sI11805
I1233
sI77344
I8217
sI11810
I1234
sI44579
I4714
sI44581
I4715
sI11814
I1235
sI77353
I8219
sI11826
I1236
sI77363
I8220
sI127582
I13546
sI110134
I11699
sI77367
I8221
sI11833
I1237
sI110138
I11700
sI44603
I4717
sI44605
I4718
sI44607
I4719
sI11844
I1238
sI94817
I10054
sI44618
I4720
sI44620
I4721
sI77389
I8223
sI44625
I4722
sI44626
I4723
sI77395
I8225
sI77397
I8226
sI77399
I8227
sI44632
I4724
sI44633
I4725
sI44637
I4726
sI44640
I4727
sI44641
I4728
sI44642
I4729
sI11879
I1239
sI110185
I11705
sI110187
I11706
sI11884
I1240
sI77421
I8229
sI110196
I11707
sI44663
I4730
sI44665
I4731
sI110204
I11709
sI56597
I5991
sI77442
I8230
sI11909
I1241
sI77448
I8231
sI11913
I1242
sI110223
I11710
sI11920
I1243
sI122136
I12975
sI77461
I8232
sI77462
I8233
sI11928
I1244
sI84098
I8928
sI88242
I9358
sI77467
I8234
sI44700
I4732
sI11933
I1245
sI11937
I1246
sI110249
I11712
sI11947
I1247
sI110254
I11713
sI116680
I12418
sI110260
I11714
sI110262
I11715
sI111220
I11810
sI11966
I1248
sI11969
I1249
sI110274
I11716
sI11971
I1250
sI110276
I11717
sI44742
I4733
sI122145
I12976
sI44744
I4734
sI44745
I4735
sI11980
I1251
sI77518
I8236
sI11984
I1252
sI105763
I11233
sI77524
I8237
sI77525
I8238
sI11991
I1253
sI110296
I11719
sI122148
I12977
sI44762
I4736
sI77532
I8240
sI44765
I4737
sI44768
I4738
sI34768
I3678
sI110306
I11720
sI80052
I8491
sI12007
I1254
sI127612
I13549
sI77546
I8241
sI77549
I8242
sI110320
I11721
sI77554
I8243
sI12020
I1255
sI77557
I8244
sI65868
I6965
sI106240
I11280
sI44799
I4739
sI110336
I11723
sI54957
I5825
sI77571
I8245
sI12040
I1256
sI12043
I1257
sI44813
I4740
sI77582
I8246
sI77587
I8247
sI110356
I11724
sI110362
I11725
sI110363
I11726
sI77600
I8248
sI117485
I12480
sI77608
I8249
sI44842
I4741
sI78471
I8337
sI122162
I12978
sI77618
I8250
sI77621
I8251
sI44855
I4742
sI44858
I4743
sI44860
I4744
sI44863
I4745
sI110404
I11728
sI44869
I4746
sI12103
I1258
sI77644
I8252
sI110417
I11729
sI110427
I11730
sI121519
I12913
sI44895
I4747
sI11315
I1174
sI77672
I8253
sI110447
I11732
sI110448
I11733
sI77682
I8254
sI12147
I1259
sI44918
I4748
sI110457
I11734
sI110459
I11735
sI71222
I7548
sI110463
I11736
sI12160
I1260
sI77697
I8255
sI44930
I4749
sI77701
I8256
sI12167
I1261
sI77705
I8257
sI77706
I8258
sI12172
I1262
sI12173
I1263
sI77710
I8259
sI12952
I1343
sI67566
I7149
sI110486
I11738
sI77719
I8260
sI77723
I8261
sI12190
I1264
sI77728
I8262
sI110500
I11740
sI56646
I5995
sI44967
I4750
sI110504
I11741
sI12203
I1265
sI44972
I4752
sI110509
I11743
sI12208
I1266
sI110513
I11744
sI12210
I1267
sI12211
I1268
sI110516
I11745
sI110521
I11746
sI12219
I1269
sI77763
I8264
sI77765
I8265
sI44998
I4754
sI12231
I1270
sI45003
I4756
sI111266
I11818
sI12238
I1271
sI12239
I1272
sI101774
I10803
sI62115
I6554
sI45013
I4757
sI95336
I10107
sI69149
I7332
sI45024
I4758
sI122192
I12983
sI12258
I1273
sI77795
I8266
sI45028
I4759
sI45030
I4760
sI110567
I11751
sI110568
I11752
sI45037
I4761
sI110574
I11753
sI45041
I4762
sI77814
I8267
sI45049
I4763
sI128071
I13588
sI45051
I4764
sI110613
I11756
sI12288
I1274
sI83968
I8917
sI62123
I6557
sI45060
I4765
sI90973
I9650
sI110599
I11755
sI45066
I4766
sI77836
I8268
sI12301
I1275
sI12305
I1276
sI12309
I1277
sI77848
I8269
sI77852
I8270
sI109523
I11636
sI45087
I4768
sI73051
I7735
sI110629
I11758
sI45095
I4769
sI12328
I1278
sI45098
I4770
sI127666
I13554
sI110638
I11759
sI45103
I4771
sI67592
I7156
sI110642
I11761
sI110643
I11762
sI12342
I1279
sI45111
I4772
sI12345
I1280
sI45117
I4773
sI94901
I10067
sI122208
I12987
sI12355
I1281
sI45124
I4774
sI12357
I1282
sI110663
I11764
sI77897
I8271
sI110670
I11765
sI67597
I7158
sI12369
I1283
sI45141
I4775
sI45143
I4776
sI77912
I8272
sI45146
I4777
sI45148
I4778
sI45152
I4779
sI110689
I11767
sI110699
I11768
sI45164
I4780
sI89448
I9496
sI45172
I4781
sI110709
I11769
sI12406
I1285
sI77946
I8273
sI45759
I4843
sI110717
I11770
sI12419
I1286
sI100374
I10635
sI45192
I4782
sI120979
I12848
sI111298
I11823
sI110739
I11771
sI77974
I8275
sI45211
I4783
sI77986
I8276
sI12454
I1287
sI12457
I1288
sI45227
I4784
sI110766
I11772
sI94252
I9997
sI12470
I1289
sI78010
I8277
sI110781
I11774
sI12478
I1290
sI89461
I9497
sI78017
I8278
sI12485
I1291
sI45254
I4785
sI45259
I4786
sI45260
I4787
sI12494
I1292
sI12500
I1293
sI78041
I8281
sI111311
I11824
sI78044
I8282
sI89466
I9498
sI12511
I1294
sI110821
I11775
sI45286
I4788
sI12520
I1295
sI45290
I4789
sI110827
I11777
sI45294
I4790
sI12533
I1296
sI78070
I8286
sI45303
I4791
sI127700
I13555
sI110842
I11778
sI78076
I8287
sI45310
I4792
sI45312
I4793
sI12545
I1297
sI45314
I4794
sI34859
I3687
sI110854
I11780
sI12551
I1298
sI45321
I4795
sI78092
I8289
sI78093
I8290
sI12559
I1299
sI78098
I8291
sI99711
I10566
sI12564
I1300
sI110869
I11782
sI45335
I4796
sI89891
I9539
sI110879
I11783
sI45344
I4797
sI78113
I8293
sI110887
I11784
sI78121
I8294
sI78123
I8295
sI45363
I4798
sI45366
I4799
sI12603
I1302
sI78142
I8296
sI45375
I4800
sI12609
I1303
sI78149
I8297
sI12615
I1304
sI110922
I11786
sI78156
I8299
sI78159
I8300
sI78160
I8301
sI110930
I11787
sI13027
I1351
sI78164
I8303
sI78169
I8304
sI12634
I1305
sI12635
I1306
sI110940
I11789
sI78175
I8305
sI45409
I4802
sI45410
I4803
sI78179
I8306
sI45417
I4804
sI12651
I1308
sI12657
I1309
sI12658
I1310
sI78195
I8307
sI45428
I4805
sI45429
I4806
sI78199
I8308
sI45434
I4807
sI78205
I8309
sI110974
I11790
sI115525
I12279
sI45443
I4808
sI12676
I1312
sI78214
I8310
sI12684
I1313
sI100418
I10641
sI12689
I1314
sI12693
I1315
sI111000
I11792
sI45465
I4809
sI78235
I8313
sI45469
I4810
sI111008
I11793
sI12705
I1316
sI12710
I1317
sI12714
I1318
sI116083
I12339
sI12722
I1319
sI94963
I10075
sI45494
I4812
sI78267
I8316
sI45503
I4813
sI12737
I1320
sI78276
I8317
sI78277
I8318
sI45510
I4814
sI45511
I4815
sI78280
I8319
sI6971
I722
sI78284
I8320
sI111054
I11794
sI100429
I10643
sI12757
I1322
sI45527
I4816
sI89508
I9502
sI45534
I4817
sI78306
I8321
sI111078
I11795
sI12776
I1323
sI45548
I4818
sI78317
I8322
sI111087
I11797
sI12784
I1324
sI45553
I4819
sI12788
I1325
sI45560
I4820
sI45561
I4821
sI45562
I4822
sI12795
I1326
sI126997
I13477
sI127744
I13558
sI73131
I7740
sI67670
I7163
sI45575
I4823
sI78344
I8324
sI78347
I8325
sI45584
I4824
sI111123
I11801
sI45590
I4825
sI45591
I4826
sI12824
I1328
sI45595
I4827
sI12829
I1329
sI100811
I10693
sI12831
I1330
sI12832
I1331
sI111138
I11802
sI98629
I10467
sI78376
I8327
sI111150
I11803
sI45617
I4828
sI78386
I8328
sI78387
I8329
sI78388
I8330
sI45625
I4829
sI45628
I4830
sI111167
I11804
sI12868
I1333
sI12877
I1334
sI13069
I1356
sI45649
I4832
sI111190
I11806
sI111198
I11807
sI45663
I4833
sI111200
I11808
sI111203
I11809
sI78444
I8333
sI12912
I1335
sI12913
I1336
sI78452
I8335
sI93176
I9881
sI12918
I1337
sI12921
I1338
sI105919
I11248
sI111229
I11811
sI78462
I8336
sI12928
I1339
sI111234
I11812
sI111235
I11813
sI45701
I4834
sI12935
I1340
sI12936
I1341
sI100460
I10647
sI12940
I1342
sI45709
I4835
sI127768
I13561
sI111253
I11815
sI111254
I11816
sI78617
I8350
sI45720
I4836
sI111259
I11817
sI45730
I4837
sI111268
I11819
sI45734
I4838
sI78503
I8338
sI13084
I1358
sI111274
I11820
sI111275
I11821
sI45740
I4839
sI78509
I8339
sI12979
I1344
sI12980
I1345
sI7625
I790
sI12984
I1346
sI45754
I4840
sI45855
I4853
sI45756
I4841
sI45758
I4842
sI12991
I1347
sI45761
I4844
sI105181
I11154
sI110508
I11742
sI127777
I13562
sI45769
I4845
sI13007
I1348
sI111312
I11825
sI107453
I11413
sI13015
I1349
sI78555
I8340
sI56081
I5945
sI62245
I6566
sI13024
I1350
sI45795
I4846
sI111334
I11826
sI13031
I1352
sI45800
I4847
sI13033
I1353
sI13034
I1354
sI111399
I11836
sI111340
I11827
sI78574
I8343
sI13039
I1355
sI45808
I4848
sI111346
I11829
sI45811
I4849
sI78588
I8344
sI78590
I8345
sI78592
I8346
sI100480
I10650
sI45829
I4850
sI45830
I4851
sI111367
I11832
sI111369
I11833
sI78603
I8347
sI51330
I5431
sI111374
I11834
sI78608
I8349
sI105944
I11253
sI74632
I7917
sI13075
I1357
sI73177
I7743
sI67716
I7177
sI45852
I4852
sI111390
I11835
sI18565
I1934
sI129189
I13709
sI45861
I4854
sI78630
I8351
sI45863
I4855
sI111403
I11837
sI111406
I11838
sI45873
I4856
sI13107
I1359
sI106276
I11286
sI78649
I8352
sI13115
I1360
sI111420
I11840
sI13119
I1361
sI45888
I4857
sI78658
I8353
sI13123
I1362
sI78660
I8354
sI110641
I11760
sI111430
I11843
sI78666
I8355
sI45899
I4858
sI111437
I11844
sI45902
I4859
sI13136
I1363
sI45905
I4860
sI111442
I11845
sI45909
I4861
sI78678
I8356
sI13143
I1364
sI13146
I1365
sI111452
I11846
sI13149
I1366
sI45919
I4862
sI67728
I7178
sI122342
I13001
sI45926
I4863
sI45927
I4864
sI13160
I1367
sI13167
I1368
sI13169
I1369
sI45942
I4866
sI45943
I4867
sI78712
I8359
sI111481
I11847
sI13181
I1370
sI78719
I8360
sI35355
I3733
sI78721
I8362
sI78722
I8363
sI111498
I11849
sI116099
I12341
sI111426
I11841
sI111503
I11850
sI97550
I10351
sI111508
I11851
sI122350
I13003
sI13207
I1371
sI45977
I4868
sI13215
I1372
sI111520
I11852
sI78753
I8364
sI13220
I1373
sI45989
I4869
sI78759
I8365
sI116892
I12432
sI45996
I4870
sI45998
I4871
sI111535
I11853
sI13233
I1374
sI80093
I8497
sI78771
I8366
sI78773
I8367
sI46007
I4872
sI51359
I5435
sI46012
I4873
sI78784
I8368
sI100825
I10695
sI111555
I11856
sI46020
I4874
sI13253
I1375
sI13255
I1376
sI111560
I11857
sI46026
I4875
sI46027
I4876
sI78801
I8370
sI78805
I8371
sI56825
I6012
sI13276
I1377
sI46046
I4877
sI100518
I10655
sI13287
I1378
sI98644
I10470
sI46059
I4878
sI46062
I4879
sI67752
I7181
sI111606
I11858
sI46071
I4880
sI13304
I1379
sI13306
I1380
sI122367
I13006
sI111612
I11860
sI78845
I8372
sI13310
I1381
sI78850
I8373
sI13315
I1382
sI78859
I8374
sI46092
I4882
sI111629
I11861
sI46094
I4883
sI111633
I11862
sI7683
I798
sI46103
I4884
sI13340
I1383
sI74641
I7919
sI46113
I4885
sI46116
I4886
sI13349
I1385
sI111657
I11863
sI111662
I11864
sI122731
I13036
sI13361
I1386
sI13362
I1387
sI128107
I13593
sI13364
I1388
sI46133
I4887
sI46134
I4888
sI46135
I4889
sI111672
I11866
sI13371
I1389
sI78909
I8379
sI46142
I4890
sI78913
I8380
sI46151
I4891
sI73228
I7750
sI111690
I11868
sI111694
I11869
sI78931
I8381
sI78933
I8382
sI13398
I1390
sI78939
I8383
sI78940
I8384
sI46173
I4892
sI46174
I4893
sI111712
I11871
sI46179
I4894
sI13412
I1391
sI89617
I9511
sI13416
I1392
sI78695
I8358
sI111726
I11872
sI111728
I11873
sI78961
I8386
sI78963
I8387
sI108469
I11531
sI13438
I1393
sI112475
I11951
sI78977
I8388
sI111749
I11874
sI13451
I1394
sI111756
I11875
sI46223
I4896
sI102655
I10901
sI111765
I11876
sI46231
I4897
sI78250
I8315
sI46235
I4898
sI79005
I8389
sI46238
I4899
sI46239
I4900
sI111776
I11877
sI79012
I8391
sI45937
I4865
sI67783
I7185
sI110653
I11763
sI79023
I8392
sI111792
I11878
sI13489
I1395
sI111794
I11879
sI79028
I8394
sI111799
I11880
sI46266
I4901
sI79036
I8395
sI111810
I11882
sI46280
I4902
sI79049
I8396
sI13524
I1396
sI13526
I1397
sI46295
I4904
sI13529
I1398
sI13530
I1399
sI46299
I4905
sI56869
I6014
sI79072
I8398
sI84176
I8934
sI79076
I8399
sI119384
I12692
sI79081
I8400
sI13547
I1400
sI79084
I8401
sI13549
I1401
sI46318
I4908
sI13552
I1402
sI111857
I11887
sI13554
I1403
sI13559
I1404
sI46328
I4910
sI101770
I10802
sI130296
I13825
sI67797
I7187
sI78720
I8361
sI111878
I11888
sI111881
I11889
sI79115
I8403
sI89645
I9516
sI46352
I4911
sI79122
I8404
sI79123
I8405
sI111893
I11890
sI111897
I11891
sI46362
I4912
sI13595
I1405
sI46365
I4913
sI111906
I11892
sI79140
I8407
sI46373
I4914
sI111910
I11893
sI124042
I13157
sI46383
I4915
sI46385
I4916
sI111922
I11895
sI89651
I9517
sI111928
I11896
sI13625
I1406
sI13629
I1407
sI111935
I11898
sI111936
I11899
sI79170
I8409
sI62347
I6579
sI13640
I1408
sI13641
I1409
sI13643
I1410
sI13649
I1411
sI46420
I4917
sI62350
I6580
sI46423
I4918
sI111960
I11901
sI81925
I8698
sI46430
I4919
sI79200
I8410
sI79204
I8411
sI13674
I1412
sI79211
I8412
sI13676
I1413
sI13684
I1414
sI111991
I11904
sI111992
I11905
sI46458
I4920
sI18666
I1949
sI46465
I4921
sI116971
I12436
sI112007
I11907
sI122434
I13012
sI95128
I10087
sI112021
I11908
sI13718
I1415
sI46488
I4922
sI13723
I1416
sI112028
I11909
sI112032
I11910
sI59378
I6279
sI79266
I8413
sI13736
I1417
sI46505
I4923
sI79275
I8415
sI46509
I4924
sI13742
I1418
sI79279
I8417
sI112048
I11912
sI46514
I4925
sI79283
I8418
sI112052
I11913
sI46517
I4926
sI79288
I8419
sI112060
I11914
sI46525
I4927
sI13759
I1419
sI7756
I806
sI46539
I4928
sI112076
I11915
sI106061
I11262
sI46544
I4929
sI13778
I1420
sI112084
I11916
sI112093
I11917
sI13792
I1421
sI13793
I1422
sI46562
I4930
sI79335
I8421
sI46568
I4931
sI79343
I8422
sI13808
I1423
sI112113
I11918
sI13811
I1424
sI112116
I11919
sI46582
I4933
sI112132
I11920
sI79367
I8423
sI79368
I8424
sI13834
I1425
sI13835
I1426
sI79372
I8425
sI46605
I4934
sI46608
I4935
sI46609
I4936
sI89689
I9520
sI46617
I4937
sI127919
I13577
sI112156
I11921
sI46621
I4938
sI13854
I1428
sI13855
I1429
sI100614
I10667
sI79399
I8427
sI13864
I1430
sI112170
I11922
sI112174
I11923
sI79407
I8428
sI112176
I11924
sI122462
I13014
sI13878
I1431
sI112185
I11926
sI46650
I4939
sI122463
I13015
sI73312
I7756
sI112196
I11927
sI46661
I4940
sI88844
I9419
sI111543
I11854
sI115315
I12252
sI79445
I8429
sI13912
I1432
sI46681
I4941
sI46682
I4942
sI46686
I4943
sI106303
I11288
sI46690
I4944
sI46691
I4945
sI13924
I1434
sI106086
I11266
sI13931
I1435
sI112236
I11928
sI112237
I11929
sI46704
I4947
sI106088
I11267
sI112242
I11930
sI100627
I10670
sI46708
I4948
sI13942
I1436
sI79480
I8431
sI13947
I1437
sI46717
I4949
sI46719
I4950
sI112256
I11931
sI112259
I11932
sI112261
I11933
sI79495
I8432
sI13963
I1438
sI112268
I11934
sI79501
I8433
sI13966
I1439
sI51480
I5453
sI33199
I3493
sI108487
I11535
sI112282
I11936
sI98294
I10428
sI46750
I4951
sI79521
I8434
sI13987
I1440
sI13989
I1441
sI46759
I4952
sI13992
I1442
sI112300
I11938
sI79534
I8435
sI112305
I11939
sI79539
I8436
sI46772
I4953
sI122484
I13017
sI112316
I11940
sI78794
I8369
sI46783
I4954
sI14016
I1443
sI84256
I8940
sI79557
I8438
sI112327
I11942
sI14026
I1444
sI79564
I8439
sI46804
I4955
sI112342
I11943
sI112344
I11944
sI14041
I1445
sI46811
I4956
sI79581
I8440
sI71391
I7564
sI67877
I7194
sI79584
I8441
sI79585
I8442
sI70300
I7448
sI46819
I4957
sI46820
I4958
sI79592
I8444
sI79595
I8445
sI79596
I8446
sI14061
I1446
sI46834
I4959
sI14067
I1447
sI14069
I1448
sI106111
I11269
sI14076
I1449
sI46847
I4960
sI122496
I13018
sI112387
I11947
sI69210
I7340
sI79624
I8448
sI46859
I4961
sI46860
I4962
sI79629
I8449
sI79630
I8450
sI46864
I4963
sI79633
I8452
sI14098
I1451
sI122499
I13019
sI14101
I1452
sI14104
I1453
sI100655
I10672
sI46876
I4964
sI46878
I4965
sI79648
I8453
sI14113
I1454
sI127963
I13579
sI14118
I1455
sI79656
I8455
sI14125
I1456
sI14127
I1457
sI46900
I4966
sI46904
I4967
sI14139
I1458
sI46910
I4968
sI128133
I13594
sI14147
I1459
sI112452
I11948
sI14149
I1460
sI46918
I4969
sI117047
I12444
sI46924
I4970
sI46925
I4971
sI112462
I11949
sI103969
I11026
sI79699
I8457
sI14166
I1462
sI79703
I8458
sI112474
I11950
sI14171
I1463
sI62437
I6590
sI84489
I8965
sI112487
I11952
sI112489
I11953
sI112490
I11954
sI112491
I11955
sI14193
I1464
sI46963
I4972
sI112501
I11956
sI79734
I8459
sI112504
I11958
sI79738
I8460
sI112507
I11959
sI79740
I8461
sI46975
I4973
sI117056
I12445
sI79747
I8462
sI51521
I5458
sI127980
I13580
sI14219
I1465
sI46990
I4974
sI112527
I11961
sI84291
I8945
sI46998
I4975
sI95677
I10148
sI47005
I4976
sI47006
I4977
sI14243
I1467
sI14245
I1468
sI79784
I8463
sI47020
I4979
sI47022
I4980
sI112569
I11964
sI47035
I4981
sI47036
I4982
sI14271
I1470
sI14272
I1471
sI47042
I4983
sI79813
I8464
sI122529
I13024
sI79817
I8465
sI56994
I6028
sI47055
I4984
sI14288
I1472
sI111608
I11859
sI14293
I1473
sI79834
I8467
sI79838
I8468
sI14305
I1474
sI112612
I11968
sI35153
I3717
sI112616
I11969
sI14313
I1475
sI47086
I4985
sI112625
I11971
sI47091
I4986
sI47093
I4987
sI79863
I8470
sI112633
I11972
sI112636
I11973
sI7850
I819
sI79870
I8471
sI112639
I11974
sI14336
I1477
sI47107
I4988
sI79876
I8472
sI79878
I8473
sI79879
I8474
sI79880
I8475
sI112655
I11977
sI47121
I4989
sI79890
I8476
sI46083
I4881
sI47126
I4990
sI79896
I8478
sI79898
I8479
sI14365
I1478
sI107409
I11408
sI47138
I4991
sI79908
I8480
sI14373
I1479
sI79910
I8481
sI14380
I1480
sI47152
I4992
sI112689
I11978
sI14388
I1481
sI47164
I4993
sI47167
I4994
sI14400
I1482
sI47170
I4995
sI79939
I8482
sI47181
I4996
sI112721
I11979
sI112723
I11980
sI109593
I11642
sI14421
I1484
sI79958
I8483
sI57017
I6029
sI112730
I11981
sI128015
I13584
sI100709
I10680
sI14432
I1485
sI119683
I12723
sI14434
I1486
sI14435
I1487
sI79973
I8485
sI14439
I1488
sI14441
I1489
sI79978
I8487
sI14444
I1490
sI112749
I11982
sI112751
I11983
sI47216
I4997
sI14449
I1491
sI47218
I4998
sI14451
I1492
sI47222
I4999
sI47225
I5000
sI47229
I5001
sI79998
I8488
sI47231
I5002
sI14468
I1494
sI112776
I11985
sI112778
I11986
sI47248
I5003
sI110822
I11776
sI47253
I5004
sI47262
I5005
sI47263
I5006
sI112801
I11988
sI80045
I8489
sI14511
I1495
sI100064
I10603
sI80049
I8490
sI47284
I5007
sI47288
I5008
sI80059
I8493
sI14524
I1497
sI80063
I8494
sI78880
I8377
sI13345
I1384
sI112840
I11991
sI89804
I9532
sI112754
I11984
sI47309
I5009
sI112847
I11993
sI80081
I8495
sI80087
I8496
sI14554
I1498
sI47323
I5010
sI35194
I3719
sI78885
I8378
sI47329
I5011
sI80098
I8498
sI47333
I5012
sI47334
I5013
sI14567
I1499
sI80104
I8499
sI47337
I5014
sI112874
I11994
sI80108
I8500
sI47342
I5015
sI80111
I8501
sI112880
I11997
sI95272
I10097
sI14578
I1500
sI112883
I11999
sI14585
I1501
sI47356
I5016
sI100736
I10682
sI47364
I5017
sI112901
I12000
sI47366
I5018
sI95276
I10099
sI47372
I5019
sI47375
I5020
sI122584
I13030
sI14610
I1504
sI112916
I12001
sI14618
I1505
sI87777
I9303
sI112927
I12003
sI112931
I12004
sI128049
I13586
sI80169
I8503
sI51591
I5467
sI47404
I5021
sI112943
I12005
sI47410
I5022
sI14643
I1506
sI112948
I12007
sI14645
I1507
sI80183
I8506
sI57054
I6038
sI62516
I6598
sI57055
I6039
sI47420
I5023
sI112957
I12009
sI14655
I1509
sI112960
I12011
sI100747
I10684
sI112966
I12012
sI80199
I8509
sI80201
I8510
sI80204
I8511
sI106210
I11279
sI51597
I5468
sI122595
I13032
sI47444
I5024
sI47447
I5025
sI14683
I1510
sI112988
I12013
sI80221
I8513
sI14690
I1511
sI14694
I1512
sI112999
I12014
sI113002
I12015
sI47469
I5027
sI47470
I5028
sI80239
I8514
sI80242
I8515
sI14707
I1513
sI80244
I8516
sI80246
I8517
sI80248
I8518
sI14717
I1514
sI47487
I5030
sI121265
I12889
sI47489
I5031
sI14724
I1515
sI113036
I12016
sI87606
I9285
sI14737
I1516
sI113042
I12018
sI113043
I12019
sI14742
I1517
sI113048
I12021
sI80281
I8519
sI113052
I12022
sI80285
I8520
sI14751
I1518
sI80288
I8521
sI14753
I1519
sI47528
I5032
sI14761
I1520
sI14763
I1521
sI47532
I5034
sI14765
I1522
sI80303
I8523
sI47536
I5035
sI80306
I8524
sI67998
I7206
sI47542
I5036
sI47544
I5037
sI80316
I8525
sI80318
I8526
sI80319
I8527
sI14789
I1523
sI80326
I8528
sI47560
I5038
sI47561
I5039
sI14794
I1524
sI113100
I12026
sI14798
I1525
sI47567
I5040
sI113104
I12027
sI47569
I5041
sI113106
I12028
sI113110
I12029
sI14808
I1526
sI14810
I1527
sI128079
I13589
sI113119
I12030
sI126887
I13468
sI14822
I1528
sI47593
I5042
sI14826
I1529
sI80187
I8507
sI14829
I1530
sI113137
I12032
sI47604
I5043
sI80375
I8531
sI14840
I1531
sI128084
I13590
sI89855
I9537
sI47612
I5044
sI47614
I5045
sI113152
I12033
sI7936
I828
sI47620
I5046
sI122701
I13034
sI113161
I12034
sI69276
I7346
sI113168
I12035
sI14866
I1532
sI14867
I1533
sI113176
I12036
sI47642
I5047
sI108517
I11539
sI14876
I1534
sI80415
I8533
sI47648
I5048
sI14881
I1535
sI113188
I12038
sI80422
I8534
sI14889
I1536
sI14893
I1537
sI47662
I5049
sI111709
I11870
sI14896
I1538
sI51779
I5487
sI68146
I7227
sI59417
I6285
sI47669
I5050
sI113211
I12039
sI113212
I12040
sI47677
I5051
sI113215
I12042
sI80448
I8535
sI47681
I5052
sI80451
I8536
sI47685
I5053
sI47686
I5054
sI47688
I5055
sI113231
I12043
sI113232
I12044
sI80470
I8538
sI128100
I13592
sI47706
I5056
sI113244
I12045
sI80477
I8539
sI113247
I12046
sI121214
I12884
sI14945
I1539
sI14947
I1540
sI47717
I5057
sI14951
I1541
sI113256
I12047
sI113261
I12048
sI76877
I8171
sI62568
I6603
sI47730
I5058
sI14964
I1542
sI14972
I1543
sI100800
I10692
sI78955
I8385
sI14980
I1544
sI80517
I8540
sI113287
I12050
sI14987
I1545
sI14988
I1546
sI80526
I8541
sI14993
I1547
sI61639
I6509
sI80532
I8542
sI14999
I1548
sI80539
I8543
sI80540
I8544
sI113313
I12053
sI120524
I12813
sI47782
I5059
sI15015
I1549
sI80554
I8546
sI15020
I1550
sI15022
I1551
sI113331
I12057
sI47796
I5061
sI47797
I5062
sI47799
I5063
sI47801
I5064
sI15034
I1552
sI47805
I5065
sI47809
I5066
sI36508
I3856
sI15043
I1553
sI80580
I8547
sI47814
I5067
sI80583
I8548
sI35276
I3725
sI47818
I5068
sI80592
I8549
sI73507
I7776
sI113364
I12061
sI7972
I829
sI35279
I3726
sI80606
I8550
sI113378
I12063
sI15075
I1554
sI47845
I5069
sI80615
I8551
sI15081
I1555
sI113387
I12064
sI15085
I1556
sI113394
I12065
sI80627
I8553
sI80632
I8554
sI80634
I8555
sI15101
I1557
sI15105
I1558
sI73515
I7777
sI113416
I12066
sI80658
I8556
sI62595
I6609
sI47893
I5070
sI113430
I12068
sI68057
I7218
sI113436
I12069
sI47902
I5071
sI80671
I8558
sI80674
I8559
sI80675
I8560
sI47908
I5072
sI47909
I5073
sI47911
I5074
sI113449
I12071
sI80684
I8561
sI73522
I7778
sI113454
I12072
sI80690
I8562
sI15157
I1560
sI113462
I12074
sI15160
I1561
sI47930
I5075
sI80699
I8563
sI15165
I1563
sI80702
I8565
sI46219
I4895
sI15173
I1564
sI112923
I12002
sI113481
I12077
sI47947
I5076
sI47949
I5077
sI15182
I1566
sI51683
I5473
sI47956
I5078
sI80726
I8567
sI15191
I1567
sI15192
I1568
sI113497
I12078
sI80731
I8568
sI113500
I12079
sI15197
I1569
sI80734
I8569
sI80736
I8570
sI109619
I11646
sI80740
I8571
sI15206
I1570
sI91070
I9663
sI47977
I5079
sI73612
I7792
sI80747
I8572
sI80756
I8573
sI47990
I5080
sI47991
I5081
sI15224
I1571
sI80762
I8574
sI15227
I1572
sI80764
I8575
sI47999
I5082
sI80773
I8576
sI113542
I12081
sI73537
I7781
sI68076
I7222
sI80780
I8577
sI15245
I1573
sI113985
I12126
sI113554
I12082
sI106307
I11289
sI15253
I1574
sI48023
I5083
sI80793
I8579
sI113360
I12059
sI75796
I8042
sI48032
I5084
sI116168
I12350
sI113574
I12083
sI48039
I5085
sI48047
I5086
sI113588
I12084
sI15286
I1575
sI73545
I7784
sI48056
I5087
sI123835
I13137
sI79007
I8390
sI15293
I1576
sI80831
I8583
sI15297
I1577
sI128860
I13675
sI15299
I1578
sI104167
I11048
sI48082
I5088
sI80852
I8584
sI8014
I834
sI48086
I5089
sI113623
I12087
sI15322
I1579
sI113628
I12088
sI15329
I1580
sI80866
I8585
sI80867
I8586
sI48100
I5090
sI15333
I1581
sI80870
I8589
sI15335
I1582
sI48105
I5091
sI106863
I11356
sI48111
I5092
sI80880
I8590
sI113650
I12089
sI15347
I1583
sI15348
I1584
sI80887
I8591
sI116634
I12412
sI48121
I5093
sI15355
I1585
sI80893
I8592
sI106325
I11292
sI48130
I5094
sI95403
I10112
sI80902
I8594
sI80903
I8595
sI48142
I5095
sI113681
I12091
sI48146
I5096
sI80915
I8596
sI48152
I5097
sI48154
I5098
sI128175
I13599
sI15388
I1586
sI80925
I8597
sI51717
I5478
sI113697
I12092
sI15397
I1587
sI79025
I8393
sI48170
I5099
sI48172
I5100
sI80944
I8598
sI80945
I8599
sI80949
I8600
sI15415
I1588
sI15416
I1589
sI128180
I13601
sI15418
I1590
sI15419
I1591
sI48192
I5101
sI48195
I5102
sI15430
I1592
sI15431
I1593
sI95415
I10115
sI48207
I5103
sI15440
I1594
sI80978
I8603
sI80987
I8604
sI48220
I5104
sI48221
I5105
sI48225
I5106
sI15459
I1595
sI113764
I12094
sI73574
I7787
sI15463
I1596
sI15464
I1597
sI48233
I5107
sI113778
I12095
sI81011
I8605
sI15479
I1598
sI48249
I5108
sI115084
I12222
sI81020
I8606
sI113789
I12097
sI81022
I8607
sI100885
I10703
sI128192
I13602
sI81026
I8608
sI48259
I5109
sI95425
I10118
sI48264
I5110
sI81034
I8609
sI113804
I12098
sI113807
I12099
sI48274
I5111
sI15508
I1599
sI48281
I5112
sI81050
I8610
sI113819
I12100
sI113820
I12101
sI113821
I12102
sI81055
I8611
sI48291
I5113
sI48294
I5114
sI81063
I8612
sI48298
I5115
sI8155
I852
sI48303
I5116
sI82352
I8743
sI15540
I1602
sI113846
I12107
sI113848
I12108
sI113850
I12109
sI81091
I8614
sI76897
I8173
sI81096
I8615
sI15563
I1603
sI33252
I3499
sI81102
I8617
sI15567
I1604
sI15572
I1605
sI15577
I1606
sI113882
I12111
sI15579
I1607
sI15580
I1608
sI113889
I12114
sI86957
I9230
sI15589
I1609
sI48358
I5117
sI48359
I5118
sI81131
I8620
sI48365
I5119
sI89981
I9546
sI48369
I5120
sI113908
I12116
sI48373
I5121
sI81142
I8621
sI80172
I8504
sI128212
I13605
sI113915
I12117
sI81150
I8622
sI15616
I1611
sI46294
I4903
sI79063
I8397
sI15632
I1612
sI48401
I5122
sI81172
I8623
sI15637
I1613
sI113943
I12119
sI113946
I12120
sI81179
I8624
sI15644
I1614
sI15648
I1615
sI81185
I8625
sI113954
I12121
sI15652
I1616
sI15653
I1617
sI84529
I8967
sI48429
I5123
sI111097
I11798
sI113969
I12123
sI122761
I13039
sI15673
I1618
sI113978
I12124
sI113980
I12125
sI15678
I1619
sI111840
I11884
sI111841
I11885
sI48457
I5124
sI81226
I8626
sI48464
I5125
sI15699
I1620
sI81237
I8627
sI81238
I8628
sI48472
I5126
sI81248
I8629
sI81254
I8630
sI15720
I1621
sI48490
I5127
sI114030
I12127
sI114035
I12128
sI111849
I11886
sI85632
I9089
sI15742
I1622
sI114047
I12129
sI15746
I1623
sI46315
I4906
sI48517
I5128
sI100929
I10709
sI114056
I12130
sI15753
I1625
sI15755
I1626
sI130369
I13831
sI46317
I4907
sI81296
I8633
sI15763
I1627
sI48533
I5129
sI15769
I1628
sI15770
I1629
sI46320
I4909
sI114084
I12131
sI114085
I12132
sI81321
I8634
sI15786
I1630
sI114091
I12133
sI79090
I8402
sI114095
I12134
sI48560
I5130
sI114100
I12135
sI90014
I9549
sI81334
I8635
sI48569
I5131
sI81341
I8636
sI48581
I5132
sI48584
I5133
sI105275
I11172
sI128247
I13606
sI15820
I1631
sI114125
I12137
sI15822
I1632
sI48593
I5134
sI15833
I1633
sI15834
I1634
sI84559
I8970
sI15836
I1635
sI114145
I12139
sI114146
I12140
sI78448
I8334
sI86727
I9201
sI114161
I12141
sI15858
I1636
sI51795
I5490
sI100948
I10712
sI95487
I10127
sI15870
I1637
sI48639
I5135
sI81409
I8638
sI15878
I1638
sI48648
I5136
sI114185
I12142
sI114188
I12143
sI15890
I1639
sI48659
I5137
sI48660
I5138
sI73646
I7796
sI100953
I10714
sI81439
I8640
sI15905
I1640
sI48675
I5139
sI114215
I12145
sI48680
I5140
sI15914
I1641
sI94367
I10006
sI114223
I12146
sI81456
I8641
sI118372
I12572
sI73651
I7797
sI114228
I12148
sI128265
I13607
sI15930
I1642
sI48700
I5141
sI89578
I9507
sI114242
I12149
sI114243
I12150
sI15941
I1643
sI15943
I1644
sI81480
I8642
sI114251
I12151
sI48718
I5142
sI114256
I12152
sI114257
I12153
sI81491
I8643
sI48730
I5143
sI15964
I1645
sI81502
I8644
sI128272
I13608
sI114274
I12154
sI48741
I5144
sI81513
I8645
sI81518
I8646
sI73661
I7798
sI114290
I12155
sI96998
I10285
sI81530
I8647
sI15995
I1646
sI100970
I10715
sI48766
I5145
sI16001
I1647
sI16003
I1648
sI81542
I8648
sI48775
I5146
sI81547
I8649
sI48781
I5147
sI16014
I1649
sI81560
I8651
sI81562
I8652
sI16027
I1650
sI81565
I8653
sI48798
I5148
sI106437
I11300
sI79131
I8406
sI114340
I12158
sI114342
I12159
sI81575
I8654
sI93280
I9889
sI16043
I1652
sI81581
I8655
sI81584
I8656
sI8136
I849
sI114357
I12161
sI81591
I8657
sI16057
I1653
sI114362
I12162
sI111830
I11883
sI48834
I5149
sI16067
I1655
sI16069
I1656
sI48838
I5150
sI81608
I8658
sI125586
I13326
sI117367
I12468
sI16076
I1657
sI81613
I8659
sI16078
I1658
sI16079
I1659
sI16080
I1660
sI68216
I7235
sI16084
I1661
sI73678
I7802
sI81623
I8661
sI81624
I8662
sI114393
I12163
sI51834
I5494
sI16094
I1662
sI122832
I13046
sI48866
I5151
sI48870
I5152
sI81639
I8663
sI81640
I8664
sI68220
I7236
sI95253
I10095
sI16108
I1663
sI48879
I5153
sI81648
I8665
sI16113
I1664
sI48882
I5154
sI16115
I1665
sI81652
I8666
sI81653
I8667
sI81654
I8668
sI81656
I8669
sI81663
I8670
sI48898
I5155
sI95531
I10133
sI48900
I5156
sI81669
I8671
sI117377
I12470
sI81672
I8672
sI16139
I1667
sI81677
I8673
sI16142
I1668
sI114448
I12165
sI114452
I12166
sI48917
I5157
sI16151
I1669
sI16152
I1670
sI79151
I8408
sI114464
I12167
sI81698
I8674
sI16163
I1671
sI51846
I5496
sI48934
I5158
sI114473
I12168
sI81708
I8675
sI101000
I10718
sI81715
I8676
sI48948
I5159
sI81718
I8677
sI68233
I7238
sI16185
I1673
sI16188
I1674
sI48960
I5160
sI81729
I8678
sI114501
I12170
sI16198
I1675
sI114503
I12171
sI84620
I8974
sI81742
I8679
sI51853
I5498
sI48977
I5161
sI16210
I1676
sI114522
I12173
sI114523
I12174
sI81756
I8680
sI48989
I5162
sI128315
I13612
sI16228
I1678
sI48999
I5163
sI16234
I1679
sI122855
I13048
sI16239
I1680
sI16241
I1681
sI81780
I8682
sI49014
I5164
sI16247
I1682
sI49017
I5165
sI16255
I1683
sI16257
I1684
sI49028
I5166
sI114565
I12175
sI49032
I5167
sI114570
I12177
sI81803
I8685
sI95554
I10136
sI106477
I11307
sI49040
I5168
sI81810
I8686
sI16275
I1686
sI114580
I12178
sI114581
I12179
sI16282
I1687
sI114587
I12180
sI49052
I5169
sI16286
I1688
sI16287
I1689
sI114592
I12182
sI49057
I5170
sI49058
I5171
sI114598
I12183
sI16295
I1690
sI16296
I1691
sI49065
I5172
sI49066
I5173
sI49069
I5174
sI16303
I1692
sI81840
I8688
sI81844
I8689
sI114614
I12185
sI81848
I8690
sI114618
I12186
sI114625
I12187
sI16323
I1693
sI106486
I11310
sI108348
I11512
sI16338
I1694
sI51875
I5500
sI81876
I8691
sI49115
I5175
sI16349
I1695
sI16350
I1696
sI16354
I1697
sI81894
I8692
sI49127
I5176
sI81896
I8694
sI49129
I5177
sI81899
I8695
sI16364
I1698
sI49134
I5178
sI49137
I5179
sI49138
I5180
sI49142
I5181
sI81911
I8697
sI111956
I11900
sI49150
I5182
sI49152
I5183
sI97656
I10362
sI16389
I1699
sI81934
I8699
sI81936
I8700
sI16403
I1700
sI16407
I1701
sI49176
I5184
sI49182
I5185
sI49183
I5186
sI49185
I5187
sI130391
I13832
sI81955
I8701
sI81956
I8702
sI117514
I12481
sI16424
I1702
sI128348
I13615
sI103113
I10938
sI49195
I5188
sI49196
I5189
sI16430
I1703
sI111965
I11902
sI122889
I13050
sI81976
I8703
sI114746
I12190
sI49211
I5190
sI81291
I8632
sI49213
I5191
sI111968
I11903
sI16450
I1704
sI16451
I1705
sI49224
I5193
sI122892
I13051
sI49227
I5194
sI49232
I5195
sI16465
I1706
sI49237
I5196
sI95588
I10139
sI112277
I11935
sI49247
I5197
sI16480
I1707
sI82017
I8707
sI68283
I7243
sI49252
I5198
sI16487
I1708
sI76270
I8095
sI16491
I1709
sI82028
I8709
sI82033
I8710
sI114804
I12193
sI114805
I12194
sI114806
I12195
sI56197
I5954
sI114809
I12196
sI16508
I1710
sI82046
I8711
sI49281
I5199
sI49283
I5200
sI82054
I8713
sI49287
I5201
sI16521
I1711
sI16523
I1712
sI117442
I12474
sI49294
I5202
sI49295
I5203
sI114833
I12198
sI49299
I5204
sI16532
I1713
sI16534
I1714
sI117444
I12475
sI114842
I12199
sI114843
I12200
sI114846
I12201
sI49311
I5205
sI82084
I8715
sI49318
I5206
sI49319
I5207
sI49323
I5208
sI40989
I4308
sI68296
I7247
sI114867
I12202
sI114868
I12203
sI101065
I10727
sI16571
I1715
sI82112
I8717
sI114881
I12204
sI16579
I1716
sI114887
I12205
sI49354
I5210
sI82127
I8719
sI49360
I5211
sI106531
I11315
sI49364
I5212
sI117454
I12477
sI82135
I8720
sI114906
I12207
sI16603
I1717
sI16604
I1718
sI73765
I7810
sI114912
I12208
sI82146
I8722
sI16611
I1719
sI114917
I12209
sI82152
I8723
sI49386
I5213
sI49387
I5214
sI111997
I11906
sI82160
I8724
sI82162
I8725
sI82163
I8726
sI49400
I5215
sI82171
I8727
sI114943
I12210
sI16642
I1721
sI82183
I8728
sI114954
I12211
sI49420
I5216
sI49421
I5217
sI16654
I1722
sI16657
I1723
sI82194
I8729
sI16659
I1724
sI121670
I12921
sI114967
I12212
sI49432
I5218
sI114970
I12214
sI49435
I5219
sI82204
I8730
sI49439
I5220
sI16674
I1725
sI82211
I8731
sI114982
I12215
sI49449
I5221
sI49455
I5222
sI49458
I5223
sI82229
I8732
sI115000
I12216
sI16698
I1726
sI115003
I12217
sI82236
I8733
sI101088
I10733
sI49477
I5224
sI82249
I8734
sI98094
I10407
sI115025
I12218
sI49494
I5225
sI16730
I1727
sI49499
I5226
sI16732
I1728
sI49504
I5227
sI115044
I12219
sI16743
I1729
sI115049
I12220
sI105250
I11168
sI49518
I5229
sI82287
I8735
sI49521
I5230
sI16755
I1730
sI82293
I8736
sI16759
I1731
sI82298
I8737
sI82300
I8738
sI128405
I13620
sI115073
I12221
sI49538
I5231
sI82308
I8739
sI49542
I5232
sI82316
I8740
sI49550
I5233
sI51949
I5508
sI49554
I5234
sI106563
I11323
sI16792
I1732
sI16794
I1733
sI82335
I8741
sI16800
I1734
sI49571
I5235
sI49573
I5236
sI16807
I1735
sI82344
I8742
sI62876
I6640
sI16811
I1736
sI78030
I8280
sI16817
I1737
sI119493
I12706
sI2803
I290
sI82357
I8744
sI115127
I12225
sI115128
I12226
sI101108
I10734
sI16826
I1738
sI49595
I5238
sI82366
I8745
sI16831
I1739
sI49600
I5240
sI16834
I1740
sI115139
I12227
sI96349
I10205
sI115142
I12228
sI16843
I1741
sI82383
I8746
sI16850
I1742
sI82387
I8747
sI82388
I8748
sI49621
I5241
sI82390
I8749
sI16856
I1743
sI49626
I5243
sI82395
I8750
sI122960
I13061
sI115170
I12229
sI115171
I12230
sI16868
I1744
sI128210
I13604
sI16873
I1745
sI49642
I5244
sI115179
I12231
sI41042
I4318
sI16880
I1746
sI49649
I5245
sI115186
I12232
sI49651
I5246
sI84734
I8989
sI79273
I8414
sI82426
I8751
sI112949
I12008
sI68353
I7251
sI16904
I1747
sI128428
I13624
sI16907
I1748
sI49676
I5247
sI82448
I8752
sI49682
I5248
sI49683
I5249
sI79278
I8416
sI115222
I12235
sI82457
I8753
sI16924
I1749
sI115229
I12236
sI82463
I8754
sI16928
I1750
sI49697
I5250
sI82469
I8755
sI115241
I12239
sI49706
I5251
sI82476
I8756
sI82478
I8757
sI115248
I12241
sI49714
I5252
sI16947
I1751
sI115253
I12242
sI115257
I12243
sI49725
I5253
sI105313
I11175
sI49728
I5254
sI115266
I12244
sI82499
I8758
sI115270
I12245
sI57441
I6079
sI49737
I5255
sI49738
I5256
sI16971
I1752
sI82511
I8760
sI49747
I5257
sI82516
I8762
sI49749
I5258
sI49754
I5259
sI115291
I12247
sI16988
I1753
sI16989
I1754
sI115294
I12248
sI82527
I8764
sI82528
I8765
sI82530
I8766
sI16997
I1755
sI49766
I5260
sI49769
I5261
sI82539
I8767
sI115308
I12251
sI49775
I5262
sI17008
I1756
sI49779
I5263
sI115319
I12253
sI115320
I12254
sI68372
I7253
sI108789
I11566
sI49789
I5264
sI17022
I1757
sI17023
I1758
sI82561
I8768
sI49795
I5265
sI127138
I13494
sI17032
I1759
sI82569
I8770
sI49802
I5266
sI17035
I1760
sI17036
I1761
sI49805
I5267
sI49806
I5268
sI35608
I3771
sI82578
I8772
sI17043
I1762
sI82580
I8773
sI49814
I5269
sI101145
I10737
sI82584
I8774
sI95684
I10149
sI17052
I1763
sI82591
I8775
sI115361
I12257
sI17059
I1764
sI115366
I12258
sI49835
I5270
sI82604
I8776
sI115374
I12259
sI128866
I13677
sI115378
I12260
sI49843
I5271
sI82615
I8777
sI115385
I12262
sI121010
I12854
sI49853
I5272
sI82627
I8778
sI17092
I1765
sI17093
I1766
sI17094
I1767
sI17096
I1768
sI115402
I12263
sI82635
I8779
sI115405
I12264
sI17107
I1769
sI49878
I5273
sI104227
I11055
sI17114
I1770
sI115421
I12265
sI49886
I5274
sI110774
I11773
sI17121
I1771
sI115426
I12266
sI115427
I12267
sI73852
I7821
sI17131
I1772
sI17132
I1773
sI17133
I1774
sI49905
I5275
sI82674
I8782
sI49907
I5276
sI17143
I1775
sI82682
I8783
sI49915
I5277
sI17148
I1776
sI17149
I1777
sI102046
I10830
sI17151
I1778
sI115456
I12269
sI49921
I5279
sI17155
I1780
sI115461
I12270
sI123009
I13065
sI82696
I8784
sI115466
I12271
sI115467
I12272
sI17165
I1781
sI115471
I12273
sI17168
I1782
sI17171
I1783
sI82709
I8785
sI17174
I1784
sI90244
I9567
sI119505
I12707
sI17180
I1785
sI49950
I5281
sI115488
I12274
sI17189
I1786
sI52017
I5512
sI49960
I5282
sI17195
I1787
sI49966
I5283
sI115504
I12276
sI112959
I12010
sI82741
I8786
sI123017
I13067
sI68404
I7257
sI82747
I8787
sI115519
I12277
sI108595
I11550
sI115522
I12278
sI82757
I8788
sI79329
I8420
sI115529
I12280
sI72588
I7695
sI82763
I8789
sI49997
I5284
sI82766
I8790
sI50001
I5285
sI115544
I12283
sI50011
I5286
sI115549
I12284
sI50014
I5287
sI50021
I5288
sI17256
I1788
sI17258
I1789
sI17260
I1790
sI115566
I12285
sI17263
I1791
sI50032
I5289
sI17267
I1792
sI17268
I1793
sI17272
I1794
sI115578
I12287
sI111361
I11830
sI106646
I11330
sI62956
I6647
sI76930
I8179
sI115595
I12288
sI17294
I1795
sI17298
I1796
sI50067
I5291
sI82839
I8793
sI115608
I12290
sI126056
I13375
sI50074
I5292
sI17311
I1797
sI82848
I8794
sI62960
I6648
sI123035
I13069
sI50085
I5293
sI115623
I12292
sI115626
I12293
sI17326
I1798
sI46579
I4932
sI82868
I8795
sI41118
I4327
sI17335
I1799
sI82874
I8797
sI50107
I5295
sI17344
I1801
sI115650
I12294
sI82883
I8798
sI17354
I1802
sI50123
I5296
sI90274
I9569
sI82896
I8799
sI50129
I5297
sI115666
I12295
sI115667
I12296
sI17366
I1803
sI50135
I5298
sI82904
I8801
sI17369
I1804
sI82908
I8802
sI82909
I8803
sI68433
I7259
sI115692
I12298
sI68434
I7260
sI82929
I8804
sI17396
I1805
sI95742
I10155
sI50170
I5300
sI50172
I5301
sI115709
I12299
sI50175
I5302
sI17408
I1806
sI82949
I8805
sI17414
I1807
sI82951
I8807
sI117591
I12492
sI82956
I8808
sI50189
I5304
sI82959
I8809
sI50195
I5305
sI50196
I5306
sI50198
I5307
sI82973
I8810
sI17442
I1808
sI68443
I7261
sI17444
I1809
sI82982
I8811
sI50216
I5308
sI17450
I1810
sI50221
I5309
sI17456
I1811
sI116648
I12416
sI82994
I8812
sI106675
I11334
sI115766
I12302
sI83000
I8813
sI17468
I1812
sI95754
I10158
sI50238
I5310
sI50240
I5311
sI17473
I1813
sI50242
I5312
sI106678
I11335
sI17481
I1814
sI50250
I5313
sI50251
I5314
sI115789
I12305
sI13837
I1427
sI83027
I8815
sI115799
I12306
sI17496
I1815
sI50267
I5315
sI17501
I1816
sI83038
I8816
sI115807
I12307
sI50275
I5316
sI50277
I5317
sI79377
I8426
sI50280
I5318
sI73916
I7826
sI83050
I8817
sI17515
I1817
sI50284
I5319
sI115821
I12309
sI99876
I10581
sI115824
I12310
sI52072
I5516
sI50290
I5320
sI73918
I7827
sI50296
I5321
sI83071
I8818
sI83074
I8819
sI50307
I5322
sI115846
I12311
sI50313
I5323
sI115851
I12312
sI50316
I5324
sI17549
I1818
sI83088
I8820
sI17553
I1819
sI50322
I5325
sI83092
I8821
sI50325
I5326
sI2927
I308
sI115870
I12313
sI83104
I8822
sI83106
I8823
sI17571
I1820
sI93331
I9897
sI50342
I5327
sI17579
I1821
sI115886
I12314
sI63005
I6652
sI17591
I1822
sI17594
I1823
sI78056
I8284
sI83135
I8826
sI83136
I8827
sI115909
I12317
sI115910
I12318
sI50375
I5328
sI17611
I1824
sI17613
I1825
sI17616
I1826
sI50385
I5330
sI83155
I8828
sI115927
I12321
sI50392
I5331
sI17626
I1827
sI17627
I1828
sI17629
I1829
sI83168
I8830
sI17636
I1830
sI115941
I12323
sI50410
I5332
sI83181
I8831
sI83183
I8832
sI123102
I13075
sI50418
I5333
sI106707
I11338
sI17652
I1831
sI17655
I1832
sI17656
I1833
sI115965
I12326
sI83198
I8834
sI115967
I12327
sI115968
I12328
sI17668
I1834
sI50437
I5334
sI83206
I8835
sI115975
I12329
sI50441
I5335
sI50446
I5336
sI50450
I5337
sI17685
I1835
sI85697
I9096
sI17691
I1836
sI50460
I5338
sI106714
I11340
sI50463
I5339
sI50465
I5340
sI17704
I1837
sI115995
I12330
sI122796
I13041
sI50477
I5341
sI50478
I5342
sI50483
I5343
sI50484
I5344
sI116021
I12331
sI50487
I5345
sI17720
I1838
sI116026
I12333
sI17723
I1839
sI50493
I5346
sI17729
I1840
sI83266
I8837
sI116036
I12334
sI112182
I11925
sI50502
I5348
sI83273
I8838
sI83274
I8839
sI116043
I12335
sI83276
I8840
sI17741
I1841
sI96355
I10206
sI92427
I9804
sI129307
I13723
sI17752
I1842
sI83289
I8842
sI117647
I12495
sI95802
I10161
sI74788
I7931
sI50531
I5349
sI50533
I5350
sI50537
I5351
sI116074
I12338
sI17772
I1843
sI104249
I11057
sI50542
I5352
sI83313
I8845
sI17778
I1844
sI50547
I5354
sI76971
I8183
sI50550
I5355
sI90345
I9578
sI17784
I1845
sI50554
I5356
sI50557
I5357
sI83326
I8848
sI50563
I5358
sI17801
I1846
sI116108
I12342
sI50577
I5359
sI116114
I12344
sI128579
I13643
sI17812
I1847
sI83351
I8849
sI83353
I8850
sI83356
I8851
sI50590
I5360
sI108132
I11478
sI73968
I7832
sI50595
I5361
sI50598
I5362
sI50602
I5363
sI17835
I1849
sI83374
I8852
sI116146
I12348
sI106739
I11344
sI83380
I8853
sI50613
I5364
sI17848
I1850
sI17849
I1851
sI17850
I1852
sI17853
I1853
sI83391
I8855
sI17858
I1854
sI116163
I12349
sI17862
I1855
sI50632
I5365
sI116169
I12351
sI17869
I1856
sI17873
I1857
sI50643
I5366
sI83412
I8857
sI106745
I11345
sI83417
I8858
sI83419
I8859
sI83420
I8860
sI83421
I8861
sI116191
I12353
sI17891
I1858
sI116199
I12354
sI83432
I8862
sI116201
I12355
sI83435
I8863
sI102071
I10833
sI116206
I12356
sI100980
I10717
sI17907
I1859
sI50676
I5368
sI50679
I5369
sI116219
I12357
sI50685
I5370
sI17918
I1860
sI83457
I8864
sI116226
I12358
sI17923
I1861
sI50692
I5372
sI116229
I12359
sI17926
I1862
sI50696
I5373
sI17929
I1863
sI17930
I1864
sI17931
I1865
sI50701
I5374
sI84614
I8973
sI83523
I8871
sI83476
I8866
sI83477
I8867
sI116248
I12360
sI90372
I9582
sI17949
I1866
sI17952
I1867
sI17954
I1868
sI83501
I8868
sI17967
I1869
sI50741
I5375
sI83510
I8869
sI83513
I8870
sI116282
I12362
sI17982
I1871
sI104256
I11058
sI78069
I8285
sI83524
I8872
sI117686
I12500
sI17992
I1872
sI116297
I12365
sI50763
I5376
sI83534
I8873
sI83535
I8874
sI50769
I5377
sI116306
I12367
sI18003
I1873
sI18004
I1874
sI83541
I8875
sI116311
I12369
sI116312
I12370
sI50777
I5378
sI18014
I1875
sI50788
I5379
sI83558
I8876
sI116327
I12372
sI84924
I9006
sI18027
I1876
sI83567
I8877
sI116337
I12373
sI50802
I5380
sI18036
I1877
sI117694
I12502
sI18039
I1878
sI18042
I1879
sI83581
I8878
sI18046
I1880
sI50818
I5381
sI79467
I8430
sI18055
I1881
sI58431
I6180
sI50828
I5383
sI83598
I8880
sI116371
I12376
sI50836
I5384
sI18072
I1882
sI50842
I5385
sI18077
I1883
sI83614
I8882
sI94439
I10014
sI124290
I13183
sI50852
I5386
sI116393
I12378
sI101319
I10754
sI50866
I5387
sI83637
I8883
sI18102
I1884
sI50871
I5388
sI83640
I8885
sI83641
I8886
sI50876
I5389
sI18110
I1885
sI50880
I5390
sI117707
I12503
sI83652
I8888
sI116421
I12380
sI18118
I1886
sI18119
I1887
sI116424
I12381
sI83657
I8889
sI128631
I13650
sI18129
I1888
sI18131
I1889
sI83673
I8890
sI18140
I1890
sI83679
I8891
sI116450
I12382
sI18148
I1891
sI83685
I8892
sI116454
I12384
sI18151
I1892
sI106791
I11349
sI50924
I5392
sI50925
I5393
sI83695
I8893
sI123176
I13082
sI83700
I8894
sI70437
I7461
sI50934
I5394
sI18167
I1893
sI116473
I12386
sI18170
I1894
sI116475
I12387
sI83711
I8895
sI116480
I12388
sI50946
I5395
sI83715
I8897
sI116485
I12389
sI18184
I1895
sI117719
I12505
sI50956
I5396
sI18190
I1896
sI50959
I5397
sI50960
I5398
sI3032
I318
sI18197
I1897
sI50972
I5399
sI116513
I12391
sI50979
I5400
sI50983
I5401
sI83752
I8900
sI18217
I1898
sI116529
I12393
sI116536
I12394
sI68575
I7275
sI116543
I12395
sI51008
I5402
sI18245
I1899
sI116550
I12396
sI116551
I12397
sI51016
I5403
sI116558
I12399
sI83791
I8901
sI51025
I5404
sI18258
I1900
sI18259
I1901
sI51028
I5405
sI106809
I11352
sI84625
I8976
sI18265
I1902
sI51036
I5406
sI51039
I5407
sI116582
I12401
sI116584
I12402
sI51049
I5408
sI116586
I12403
sI101837
I10810
sI51052
I5409
sI18287
I1903
sI116593
I12404
sI51063
I5410
sI128660
I13654
sI116269
I12361
sI51070
I5411
sI83839
I8904
sI116608
I12406
sI18305
I1905
sI51078
I5412
sI116615
I12407
sI116616
I12408
sI129363
I13729
sI18315
I1906
sI18321
I1907
sI116626
I12409
sI83860
I8905
sI68590
I7276
sI116631
I12410
sI116632
I12411
sI51098
I5413
sI68591
I7277
sI51102
I5414
sI116641
I12414
sI116644
I12415
sI83880
I8906
sI18345
I1908
sI116650
I12417
sI83883
I8907
sI51118
I5415
sI123208
I13084
sI83891
I8908
sI18359
I1909
sI83900
I8909
sI18366
I1910
sI83903
I8910
sI18368
I1911
sI18370
I1912
sI90443
I9587
sI83908
I8911
sI104269
I11060
sI51143
I5416
sI85448
I9063
sI18380
I1913
sI18382
I1914
sI18383
I1915
sI111668
I11865
sI83922
I8913
sI83923
I8914
sI51159
I5417
sI51161
I5418
sI18398
I1916
sI63142
I6664
sI116716
I12420
sI116718
I12421
sI18417
I1917
sI83960
I8915
sI51194
I5419
sI83963
I8916
sI51200
I5420
sI18433
I1918
sI83970
I8918
sI18438
I1919
sI83977
I8919
sI83978
I8920
sI18445
I1920
sI18448
I1921
sI51217
I5421
sI51226
I5422
sI51229
I5423
sI116767
I12422
sI116768
I12423
sI99415
I10542
sI126095
I13377
sI51245
I5424
sI84014
I8921
sI88064
I9334
sI51252
I5425
sI18486
I1922
sI51257
I5426
sI121731
I12928
sI84030
I8923
sI116799
I12425
sI51264
I5427
sI101387
I10764
sI18505
I1923
sI18506
I1924
sI99273
I10520
sI108638
I11552
sI18509
I1925
sI84047
I8924
sI18512
I1926
sI121456
I12908
sI116824
I12426
sI51289
I5428
sI18522
I1927
sI116827
I12427
sI84061
I8925
sI18526
I1928
sI90469
I9594
sI51297
I5429
sI84070
I8926
sI51304
I5430
sI18537
I1929
sI18539
I1930
sI18543
I1931
sI18547
I1932
sI116852
I12428
sI116854
I12429
sI123241
I13087
sI116859
I12430
sI90474
I9595
sI116862
I12431
sI84096
I8927
sI79552
I8437
sI18562
I1933
sI51333
I5432
sI51335
I5433
sI84104
I8930
sI18570
I1935
sI51344
I5434
sI101400
I10767
sI18580
I1936
sI84123
I8932
sI18588
I1937
sI18591
I1938
sI51361
I5436
sI51362
I5437
sI51368
I5438
sI18601
I1939
sI18602
I1940
sI51371
I5439
sI51372
I5440
sI116909
I12433
sI18607
I1941
sI51377
I5441
sI74099
I7842
sI18612
I1942
sI68638
I7280
sI18618
I1943
sI18624
I1944
sI101408
I10769
sI51395
I5442
sI18630
I1945
sI18632
I1946
sI84174
I8933
sI51408
I5443
sI84177
I8935
sI116950
I12434
sI51415
I5444
sI35876
I3793
sI18650
I1947
sI18652
I1948
sI51430
I5445
sI116969
I12435
sI51434
I5446
sI51435
I5447
sI116973
I12437
sI51439
I5448
sI121737
I12930
sI63187
I6669
sI116980
I12438
sI18679
I1950
sI51448
I5449
sI51449
I5450
sI51450
I5451
sI18688
I1951
sI18690
I1952
sI18691
I1953
sI84229
I8936
sI84234
I8937
sI84235
I8938
sI18708
I1954
sI51479
I5452
sI18712
I1955
sI84250
I8939
sI51483
I5454
sI117022
I12440
sI51488
I5455
sI84260
I8941
sI84264
I8942
sI117035
I12441
sI117037
I12442
sI117040
I12443
sI111919
I11894
sI18738
I1956
sI112350
I11945
sI90505
I9598
sI84282
I8943
sI51517
I5456
sI51519
I5457
sI84288
I8944
sI18753
I1957
sI51523
I5459
sI51529
I5460
sI18762
I1958
sI35895
I3795
sI18770
I1959
sI84308
I8946
sI18773
I1960
sI79588
I8443
sI117086
I12446
sI84320
I8947
sI51554
I5461
sI18787
I1961
sI117094
I12447
sI84330
I8948
sI51564
I5462
sI84335
I8949
sI117105
I12448
sI18803
I1962
sI51573
I5463
sI117112
I12449
sI116286
I12363
sI51582
I5464
sI74133
I7846
sI51585
I5465
sI51589
I5466
sI18823
I1963
sI117128
I12451
sI84361
I8950
sI123287
I13092
sI117132
I12452
sI18829
I1964
sI84366
I8951
sI112365
I11946
sI84368
I8952
sI84370
I8953
sI84390
I8954
sI128754
I13660
sI51633
I5469
sI101012
I10720
sI84403
I8955
sI84405
I8956
sI84409
I8957
sI84412
I8958
sI51647
I5470
sI117184
I12453
sI94112
I9980
sI51656
I5471
sI84429
I8959
sI51663
I5472
sI18897
I1965
sI117202
I12454
sI18899
I1966
sI84438
I8960
sI84443
I8961
sI117213
I12455
sI18911
I1967
sI18915
I1968
sI51684
I5474
sI18917
I1969
sI51689
I5475
sI117227
I12456
sI18925
I1970
sI84466
I8962
sI84469
I8963
sI84470
I8964
sI117240
I12457
sI51708
I5476
sI105379
I11182
sI18942
I1971
sI51712
I5477
sI18945
I1972
sI18948
I1973
sI18949
I1974
sI51718
I5479
sI18953
I1975
sI84490
I8966
sI50823
I5382
sI51727
I5480
sI116291
I12364
sI18964
I1976
sI57774
I6114
sI117270
I12461
sI106927
I11360
sI51741
I5481
sI117283
I12462
sI51751
I5482
sI117289
I12463
sI18987
I1977
sI18991
I1978
sI51761
I5483
sI51762
I5484
sI117300
I12464
sI117303
I12465
sI51773
I5485
sI51774
I5486
sI19011
I1979
sI84552
I8968
sI51786
I5488
sI84558
I8969
sI51791
I5489
sI19027
I1980
sI19028
I1981
sI117337
I12466
sI117340
I12467
sI68709
I7288
sI19040
I1982
sI14096
I1450
sI84579
I8971
sI51813
I5491
sI19046
I1983
sI51821
I5492
sI51831
I5493
sI84600
I8972
sI19066
I1984
sI123327
I13095
sI117374
I12469
sI19071
I1985
sI19073
I1986
sI19075
I1987
sI51845
I5495
sI19078
I1988
sI51852
I5497
sI19085
I1989
sI19086
I1990
sI84623
I8975
sI19089
I1991
sI106947
I11362
sI117396
I12471
sI19095
I1992
sI51865
I5499
sI19099
I1993
sI19104
I1994
sI19107
I1995
sI51877
I5501
sI117414
I12472
sI84647
I8977
sI84655
I8978
sI117428
I12473
sI19125
I1996
sI19126
I1997
sI19129
I1998
sI117877
I12519
sI101021
I10721
sI84673
I8979
sI51906
I5502
sI123339
I13097
sI51908
I5503
sI19141
I1999
sI79649
I8454
sI51914
I5504
sI117452
I12476
sI84686
I8980
sI51919
I5505
sI19153
I2000
sI117460
I12478
sI111933
I11897
sI84696
I8981
sI19161
I2001
sI51931
I5506
sI117469
I12479
sI84702
I8982
sI84706
I8983
sI51939
I5507
sI19173
I2002
sI115207
I12233
sI19181
I2003
sI87929
I9318
sI103771
I11004
sI84724
I8984
sI19189
I2004
sI84729
I8986
sI84731
I8987
sI84732
I8988
sI51966
I5509
sI84737
I8990
sI19204
I2005
sI84741
I8991
sI51978
I5510
sI19216
I2006
sI84753
I8992
sI117522
I12482
sI117526
I12483
sI19224
I2007
sI117531
I12484
sI19229
I2008
sI19230
I2009
sI117539
I12485
sI84773
I8993
sI52009
I5511
sI117546
I12487
sI19243
I2010
sI84782
I8994
sI19247
I2011
sI84784
I8995
sI19249
I2012
sI84790
I8996
sI128820
I13669
sI84796
I8997
sI19261
I2013
sI84798
I8998
sI19270
I2014
sI117575
I12489
sI63287
I6679
sI78112
I8292
sI52048
I5513
sI96056
I10183
sI19283
I2015
sI117588
I12490
sI52053
I5514
sI52055
I5515
sI19288
I2016
sI115211
I12234
sI114120
I12136
sI19301
I2017
sI19304
I2018
sI19306
I2019
sI117613
I12494
sI117908
I12524
sI84858
I8999
sI19324
I2020
sI19330
I2021
sI84868
I9000
sI84870
I9001
sI84874
I9002
sI110848
I11779
sI76289
I8098
sI52115
I5517
sI52116
I5518
sI117654
I12496
sI117655
I12497
sI19352
I2022
sI19354
I2023
sI84893
I9003
sI117662
I12498
sI84895
I9004
sI52134
I5519
sI84903
I9005
sI19369
I2024
sI19372
I2025
sI123378
I13099
sI52145
I5520
sI19382
I2026
sI52153
I5521
sI52155
I5522
sI52156
I5523
sI89027
I9444
sI106997
I11366
sI19392
I2027
sI84932
I9007
sI14156
I1461
sI106999
I11367
sI19405
I2028
sI19407
I2029
sI19411
I2030
sI117718
I12504
sI84951
I9008
sI52184
I5525
sI52191
I5526
sI84961
I9009
sI52194
I5527
sI19427
I2031
sI85158
I9026
sI117735
I12508
sI52200
I5528
sI52203
I5529
sI84973
I9010
sI84974
I9011
sI74237
I7862
sI52211
I5530
sI117750
I12509
sI117751
I12510
sI55673
I5902
sI117759
I12511
sI74240
I7863
sI19463
I2032
sI19464
I2033
sI19467
I2034
sI117773
I12512
sI52238
I5531
sI19471
I2035
sI19472
I2036
sI117780
I12513
sI85166
I9028
sI85014
I9012
sI19481
I2037
sI85025
I9013
sI52259
I5533
sI101033
I10722
sI85034
I9014
sI117803
I12514
sI85037
I9015
sI52270
I5534
sI52274
I5535
sI96094
I10186
sI85053
I9016
sI19519
I2038
sI52290
I5536
sI85059
I9017
sI19524
I2039
sI117834
I12517
sI19531
I2040
sI52300
I5537
sI96098
I10187
sI107021
I11371
sI117841
I12518
sI52306
I5538
sI19546
I2041
sI19547
I2042
sI52316
I5539
sI85086
I9019
sI52324
I5540
sI19561
I2043
sI85099
I9020
sI52332
I5541
sI52340
I5542
sI85109
I9021
sI117878
I12520
sI117880
I12521
sI85119
I9022
sI117894
I12522
sI117895
I12523
sI19593
I2044
sI19598
I2045
sI85136
I9023
sI85140
I9024
sI19605
I2046
sI52374
I5543
sI85143
I9025
sI52379
I5544
sI127224
I13505
sI19615
I2047
sI19622
I2048
sI85163
I9027
sI52398
I5546
sI98969
I10499
sI117961
I12525
sI85176
I9029
sI52410
I5547
sI19644
I2049
sI85181
I9030
sI19648
I2050
sI107040
I11373
sI112502
I11957
sI52423
I5548
sI52424
I5549
sI52425
I5550
sI85199
I9031
sI52432
I5551
sI19665
I2051
sI95583
I10138
sI52436
I5552
sI19670
I2052
sI117975
I12526
sI43209
I4556
sI19677
I2053
sI90661
I9616
sI19690
I2054
sI117995
I12527
sI117996
I12528
sI117998
I12529
sI19696
I2055
sI19699
I2056
sI85236
I9034
sI52470
I5554
sI118007
I12530
sI128895
I13680
sI85245
I9035
sI19711
I2057
sI19713
I2058
sI90129
I9557
sI85254
I9036
sI52488
I5555
sI19721
I2059
sI52495
I5556
sI19732
I2060
sI19735
I2061
sI52505
I5557
sI100755
I10685
sI68826
I7296
sI52510
I5558
sI52511
I5559
sI19746
I2062
sI52515
I5560
sI19748
I2063
sI52521
I5561
sI85291
I9039
sI85297
I9040
sI118069
I12536
sI85302
I9041
sI52536
I5562
sI85306
I9042
sI52542
I5563
sI101601
I10786
sI118088
I12537
sI52558
I5564
sI85328
I9045
sI85329
I9046
sI112526
I11960
sI118104
I12539
sI52571
I5565
sI85340
I9047
sI19809
I2064
sI118116
I12540
sI101606
I10787
sI85350
I9048
sI52583
I5566
sI52585
I5567
sI85354
I9049
sI85358
I9050
sI19823
I2065
sI52593
I5568
sI85362
I9051
sI85365
I9052
sI52598
I5569
sI85367
I9053
sI85369
I9054
sI19834
I2066
sI19835
I2067
sI118140
I12541
sI19837
I2068
sI52607
I5570
sI52608
I5571
sI52610
I5572
sI3307
I349
sI85380
I9055
sI118149
I12544
sI85382
I9056
sI85383
I9057
sI19849
I2069
sI118155
I12545
sI127232
I13507
sI85392
I9058
sI85398
I9059
sI118170
I12547
sI52636
I5573
sI52638
I5574
sI85408
I9060
sI52642
I5575
sI52647
I5576
sI52648
I5577
sI52650
I5578
sI85422
I9061
sI85235
I9033
sI52660
I5579
sI14238
I1466
sI19894
I2070
sI118199
I12550
sI118202
I12551
sI19899
I2071
sI52670
I5580
sI52672
I5581
sI19906
I2072
sI52677
I5582
sI52680
I5583
sI85449
I9064
sI52685
I5584
sI118224
I12553
sI118225
I12554
sI19922
I2073
sI19927
I2074
sI52697
I5585
sI52701
I5586
sI85470
I9067
sI47013
I4978
sI19936
I2075
sI19938
I2076
sI52707
I5588
sI85476
I9069
sI19943
I2077
sI118250
I12557
sI118252
I12558
sI19949
I2078
sI118254
I12559
sI85487
I9070
sI112552
I11963
sI19955
I2079
sI52729
I5590
sI106072
I11264
sI85499
I9071
sI85502
I9072
sI85504
I9073
sI19970
I2080
sI52739
I5591
sI52741
I5592
sI118278
I12560
sI118017
I12531
sI85514
I9074
sI41559
I4371
sI118286
I12561
sI52755
I5594
sI118292
I12563
sI118295
I12564
sI105414
I11188
sI19996
I2081
sI52767
I5595
sI103232
I10945
sI20001
I2082
sI20005
I2083
sI85542
I9075
sI52776
I5597
sI20011
I2084
sI20012
I2085
sI74333
I7877
sI85552
I9076
sI85256
I9037
sI52786
I5598
sI20019
I2086
sI118324
I12567
sI85561
I9077
sI123487
I13106
sI52796
I5599
sI118337
I12568
sI52803
I5600
sI20040
I2087
sI90722
I9622
sI85583
I9078
sI118352
I12569
sI85585
I9079
sI52824
I5601
sI20059
I2088
sI85596
I9080
sI101648
I10790
sI85602
I9081
sI85603
I9082
sI52836
I5603
sI20071
I2089
sI52840
I5604
sI14268
I1469
sI20076
I2090
sI52845
I5605
sI118383
I12573
sI20080
I2091
sI118390
I12574
sI118394
I12575
sI85627
I9085
sI85628
I9086
sI20093
I2092
sI85631
I9088
sI20096
I2093
sI118402
I12576
sI85638
I9090
sI118039
I12533
sI118421
I12577
sI52888
I5606
sI85657
I9091
sI20123
I2094
sI52895
I5607
sI74352
I7881
sI20130
I2095
sI20132
I2096
sI52901
I5608
sI118044
I12534
sI118444
I12578
sI52911
I5609
sI118449
I12579
sI123507
I13107
sI20150
I2097
sI85687
I9094
sI52925
I5610
sI20158
I2098
sI85695
I9095
sI52929
I5611
sI52932
I5612
sI107126
I11378
sI85703
I9097
sI57975
I6135
sI20172
I2099
sI85710
I9098
sI20182
I2100
sI85721
I9099
sI85722
I9100
sI20188
I2101
sI85727
I9101
sI85728
I9102
sI79824
I8466
sI82507
I8759
sI91134
I9670
sI112593
I11966
sI52969
I5613
sI101671
I10793
sI118510
I12582
sI52978
I5614
sI20211
I2102
sI118517
I12583
sI118518
I12584
sI52984
I5615
sI118522
I12585
sI52988
I5616
sI52989
I5617
sI128982
I13691
sI68908
I7309
sI20236
I2103
sI53005
I5618
sI103240
I10946
sI20242
I2104
sI53012
I5619
sI118549
I12588
sI20251
I2105
sI20253
I2106
sI85790
I9108
sI118561
I12591
sI53030
I5620
sI53032
I5621
sI53035
I5622
sI53036
I5623
sI53037
I5624
sI20270
I2107
sI53044
I5625
sI53047
I5626
sI118586
I12592
sI118587
I12593
sI118590
I12594
sI53056
I5627
sI85825
I9109
sI118595
I12595
sI85679
I9093
sI53062
I5628
sI20298
I2108
sI113830
I12103
sI118604
I12596
sI53072
I5629
sI20308
I2109
sI20312
I2110
sI118617
I12597
sI53088
I5630
sI53090
I5631
sI85859
I9111
sI85863
I9112
sI53096
I5632
sI20332
I2111
sI53103
I5633
sI53105
I5634
sI118643
I12599
sI85310
I9043
sI118646
I12600
sI20343
I2112
sI118648
I12602
sI85882
I9114
sI20350
I2113
sI90773
I9627
sI20356
I2114
sI20360
I2115
sI53129
I5635
sI118668
I12604
sI85905
I9115
sI53138
I5636
sI118675
I12605
sI53140
I5637
sI14318
I1476
sI20376
I2116
sI20377
I2117
sI20384
I2118
sI20385
I2119
sI20386
I2120
sI20390
I2121
sI85931
I9117
sI85933
I9118
sI118702
I12606
sI92334
I9792
sI118704
I12607
sI36168
I3818
sI129011
I13694
sI118709
I12608
sI90783
I9629
sI118717
I12609
sI53183
I5639
sI20421
I2122
sI53193
I5640
sI85964
I9120
sI20429
I2123
sI116340
I12374
sI53202
I5641
sI85326
I9044
sI53207
I5642
sI107172
I11384
sI20445
I2124
sI123557
I13111
sI113831
I12104
sI85989
I9121
sI118758
I12612
sI53225
I5643
sI20462
I2125
sI20463
I2126
sI86002
I9123
sI118772
I12614
sI53242
I5644
sI86012
I9124
sI86014
I9125
sI53248
I5645
sI53249
I5646
sI20484
I2127
sI53254
I5647
sI20487
I2128
sI86025
I9128
sI53258
I5648
sI118798
I12616
sI20495
I2129
sI53264
I5649
sI118803
I12617
sI20502
I2130
sI20506
I2131
sI95611
I10141
sI112646
I11975
sI86056
I9130
sI20523
I2132
sI20528
I2133
sI20529
I2134
sI20531
I2135
sI63497
I6705
sI20536
I2136
sI20537
I2137
sI20538
I2138
sI86078
I9133
sI20543
I2139
sI86081
I9134
sI53314
I5650
sI118851
I12620
sI20548
I2140
sI107190
I11388
sI53321
I5651
sI53324
I5652
sI118861
I12621
sI53327
I5653
sI118867
I12622
sI20564
I2141
sI118873
I12623
sI118874
I12624
sI20583
I2142
sI53353
I5655
sI53359
I5656
sI86128
I9137
sI118900
I12625
sI118903
I12626
sI20601
I2143
sI118907
I12627
sI53372
I5657
sI68970
I7314
sI86143
I9138
sI20609
I2144
sI53380
I5658
sI79894
I8477
sI118920
I12629
sI63511
I6707
sI118926
I12630
sI53393
I5659
sI20627
I2145
sI118305
I12566
sI53398
I5660
sI53402
I5661
sI53403
I5662
sI74437
I7891
sI53408
I5663
sI20641
I2146
sI86178
I9141
sI118947
I12631
sI86182
I9142
sI118953
I12632
sI20650
I2147
sI86187
I9143
sI20656
I2148
sI20657
I2149
sI96287
I10197
sI53436
I5664
sI118973
I12633
sI20671
I2150
sI118976
I12635
sI53441
I5666
sI53444
I5667
sI86218
I9144
sI20683
I2151
sI41677
I4387
sI118994
I12636
sI118996
I12637
sI53462
I5668
sI20695
I2152
sI119003
I12638
sI86237
I9146
sI119006
I12639
sI53473
I5669
sI119012
I12640
sI53477
I5670
sI53478
I5671
sI121805
I12938
sI90834
I9636
sI53488
I5672
sI53489
I5673
sI119028
I12642
sI53494
I5674
sI20727
I2153
sI119032
I12643
sI20729
I2154
sI119034
I12645
sI68991
I7317
sI20732
I2155
sI20734
I2156
sI119039
I12646
sI20736
I2157
sI53505
I5675
sI119042
I12647
sI53508
I5676
sI20746
I2158
sI86284
I9148
sI119053
I12649
sI20750
I2159
sI53519
I5677
sI20752
I2160
sI107224
I11395
sI58073
I6144
sI53529
I5678
sI119068
I12650
sI53533
I5679
sI86302
I9150
sI119071
I12651
sI119072
I12652
sI53537
I5680
sI119075
I12653
sI53543
I5681
sI86317
I9152
sI53555
I5682
sI53557
I5683
sI20790
I2161
sI86328
I9155
sI20793
I2162
sI119099
I12656
sI20797
I2163
sI20799
I2164
sI86336
I9156
sI41696
I4388
sI20807
I2165
sI119114
I12657
sI20814
I2166
sI86351
I9158
sI53586
I5684
sI86357
I9159
sI119126
I12660
sI53594
I5685
sI119131
I12661
sI53597
I5686
sI53598
I5687
sI86369
I9160
sI20834
I2167
sI53603
I5688
sI53610
I5689
sI20844
I2168
sI20847
I2169
sI53616
I5690
sI119153
I12662
sI86386
I9163
sI101779
I10805
sI96318
I10199
sI119158
I12663
sI20862
I2170
sI86400
I9164
sI53634
I5691
sI53636
I5692
sI119173
I12664
sI101783
I10807
sI14402
I1483
sI53648
I5693
sI20881
I2171
sI119186
I12666
sI20883
I2172
sI20884
I2173
sI86425
I9166
sI86429
I9167
sI119198
I12668
sI86431
I9168
sI119203
I12670
sI53670
I5695
sI86440
I9170
sI20905
I2174
sI119212
I12672
sI20910
I2175
sI119218
I12673
sI20916
I2176
sI86454
I9172
sI86455
I9173
sI119224
I12674
sI53691
I5697
sI53694
I5698
sI20927
I2177
sI20928
I2178
sI53699
I5699
sI53700
I5700
sI86470
I9175
sI53704
I5701
sI53706
I5702
sI116453
I12383
sI20946
I2179
sI20947
I2180
sI20949
I2181
sI86486
I9177
sI53721
I5703
sI119261
I12677
sI20959
I2182
sI110902
I11785
sI20964
I2183
sI20965
I2184
sI20974
I2185
sI20977
I2186
sI53748
I5705
sI119286
I12678
sI86519
I9178
sI53756
I5706
sI127801
I13565
sI53759
I5707
sI53761
I5708
sI118541
I12587
sI63574
I6717
sI20998
I2187
sI119304
I12680
sI21002
I2188
sI53773
I5709
sI86543
I9179
sI53777
I5710
sI21010
I2189
sI69038
I7320
sI119323
I12681
sI119325
I12682
sI69040
I7321
sI21026
I2190
sI86565
I9181
sI119342
I12684
sI53807
I5711
sI21041
I2191
sI53810
I5712
sI118195
I12548
sI119349
I12686
sI86584
I9183
sI118196
I12549
sI8970
I926
sI119360
I12687
sI53827
I5713
sI85430
I9062
sI86598
I9184
sI21064
I2192
sI86602
I9185
sI119371
I12688
sI119372
I12689
sI119375
I12690
sI21073
I2193
sI79971
I8484
sI104359
I11070
sI21079
I2194
sI53848
I5714
sI53849
I5715
sI86620
I9187
sI86628
I9188
sI107281
I11399
sI119401
I12695
sI113592
I12086
sI119404
I12696
sI21101
I2195
sI53874
I5716
sI119411
I12697
sI119412
I12698
sI53877
I5717
sI86646
I9191
sI79977
I8486
sI35619
I3772
sI21114
I2196
sI86653
I9192
sI53892
I5719
sI53893
I5720
sI21132
I2197
sI86671
I9194
sI53907
I5721
sI21140
I2198
sI21141
I2199
sI53911
I5722
sI119452
I12700
sI86688
I9195
sI119457
I12701
sI119459
I12702
sI21156
I2200
sI21158
I2201
sI53927
I5723
sI53928
I5724
sI21161
I2202
sI119466
I12703
sI53933
I5725
sI86702
I9196
sI104362
I11071
sI21169
I2203
sI78047
I8283
sI53942
I5726
sI86713
I9197
sI119482
I12705
sI21179
I2204
sI53948
I5728
sI21183
I2205
sI86720
I9198
sI53953
I5729
sI14454
I1493
sI86726
I9200
sI21191
I2206
sI53966
I5731
sI85453
I9065
sI86736
I9202
sI53969
I5732
sI86740
I9203
sI119513
I12708
sI21212
I2207
sI107637
I11428
sI21218
I2208
sI86755
I9204
sI86760
I9205
sI85458
I9066
sI119534
I12709
sI53999
I5733
sI54001
I5734
sI119539
I12710
sI86772
I9206
sI54007
I5735
sI125096
I13262
sI21245
I2209
sI86782
I9207
sI101845
I10814
sI86784
I9208
sI21249
I2210
sI21251
I2211
sI86792
I9210
sI90924
I9642
sI54033
I5736
sI21267
I2212
sI86804
I9211
sI21269
I2213
sI21276
I2214
sI86813
I9212
sI54046
I5737
sI129157
I13704
sI103580
I10986
sI21281
I2215
sI86818
I9214
sI54051
I5738
sI21284
I2216
sI21286
I2217
sI86823
I9215
sI119592
I12713
sI21290
I2218
sI21291
I2219
sI86828
I9216
sI54061
I5739
sI86831
I9217
sI119603
I12714
sI86838
I9218
sI130640
I13861
sI119610
I12715
sI54077
I5740
sI54080
I5741
sI119619
I12716
sI21316
I2220
sI54085
I5742
sI86854
I9219
sI119623
I12718
sI86859
I9220
sI21325
I2221
sI54096
I5743
sI54097
I5744
sI119634
I12719
sI118243
I12555
sI101860
I10817
sI86874
I9221
sI86879
I9222
sI41788
I4398
sI118247
I12556
sI54128
I5745
sI86899
I9223
sI86901
I9224
sI54135
I5746
sI86904
I9225
sI119676
I12720
sI119677
I12721
sI119678
I12722
sI86912
I9226
sI86913
I9227
sI54147
I5747
sI54149
I5748
sI129175
I13706
sI129176
I13707
sI21395
I2222
sI65089
I6868
sI54169
I5749
sI86939
I9228
sI54179
I5750
sI54181
I5751
sI54182
I5752
sI21415
I2223
sI118555
I12589
sI21418
I2224
sI83639
I8884
sI86958
I9231
sI125102
I13263
sI21426
I2225
sI52723
I5589
sI86964
I9232
sI54197
I5754
sI124967
I13244
sI86971
I9233
sI54214
I5755
sI21448
I2226
sI86985
I9234
sI21453
I2227
sI54224
I5757
sI124012
I13154
sI86995
I9235
sI21460
I2228
sI21468
I2229
sI21469
I2230
sI119775
I12725
sI21474
I2231
sI87011
I9236
sI21481
I2232
sI87018
I9237
sI87021
I9238
sI21486
I2233
sI119794
I12727
sI90963
I9647
sI21492
I2234
sI21494
I2235
sI54263
I5759
sI119809
I12728
sI119810
I12729
sI123734
I13124
sI87049
I9239
sI87052
I9240
sI119828
I12730
sI129198
I13711
sI21526
I2236
sI119831
I12731
sI87065
I9241
sI63663
I6724
sI90970
I9649
sI21536
I2237
sI119845
I12732
sI58205
I6156
sI21553
I2238
sI54322
I5760
sI87093
I9243
sI54328
I5761
sI14516
I1496
sI21565
I2239
sI21568
I2240
sI21569
I2241
sI52747
I5593
sI21572
I2242
sI116378
I12377
sI54345
I5762
sI74594
I7906
sI87120
I9245
sI80056
I8492
sI107363
I11404
sI101902
I10822
sI21593
I2243
sI87130
I9246
sI69135
I7331
sI112827
I11989
sI54376
I5763
sI43134
I4548
sI54382
I5764
sI119919
I12734
sI21616
I2244
sI119921
I12735
sI118291
I12562
sI54388
I5765
sI119926
I12736
sI63679
I6725
sI54396
I5766
sI87166
I9248
sI112833
I11990
sI21641
I2245
sI21644
I2246
sI54413
I5768
sI21646
I2247
sI113839
I12105
sI119961
I12738
sI87200
I9249
sI87205
I9250
sI87206
I9251
sI21675
I2248
sI87212
I9252
sI119981
I12740
sI21679
I2249
sI54451
I5769
sI54452
I5770
sI21685
I2250
sI21686
I2251
sI87223
I9253
sI109835
I11667
sI118303
I12565
sI74614
I7911
sI54470
I5771
sI52769
I5596
sI21704
I2252
sI87241
I9256
sI120011
I12742
sI54479
I5772
sI120016
I12744
sI87249
I9257
sI54483
I5773
sI21717
I2253
sI87257
I9258
sI120027
I12745
sI107386
I11406
sI87262
I9259
sI21727
I2254
sI21730
I2255
sI21731
I2256
sI120042
I12747
sI87275
I9260
sI21740
I2257
sI44369
I4685
sI87279
I9261
sI54512
I5774
sI54516
I5775
sI120054
I12749
sI54519
I5776
sI21752
I2258
sI120058
I12750
sI120059
I12751
sI54525
I5777
sI120063
I12752
sI120065
I12753
sI87298
I9262
sI120069
I12754
sI54535
I5778
sI107394
I11407
sI54542
I5779
sI120082
I12756
sI21779
I2259
sI87319
I9264
sI120088
I12757
sI87322
I9265
sI100063
I10602
sI21789
I2260
sI120094
I12758
sI21792
I2261
sI21797
I2262
sI21799
I2263
sI54575
I5781
sI87344
I9266
sI21809
I2264
sI120119
I12759
sI54584
I5783
sI87353
I9268
sI96479
I10219
sI21823
I2265
sI54594
I5784
sI21829
I2266
sI21830
I2267
sI120135
I12760
sI123788
I13128
sI54608
I5785
sI120145
I12761
sI21845
I2268
sI87383
I9270
sI120155
I12763
sI120156
I12764
sI21857
I2269
sI36411
I3849
sI21861
I2270
sI120166
I12766
sI54631
I5786
sI54632
I5787
sI91026
I9655
sI21870
I2271
sI54639
I5788
sI21874
I2272
sI123795
I13129
sI87412
I9271
sI120181
I12767
sI54646
I5789
sI54650
I5790
sI21890
I2273
sI21893
I2274
sI120198
I12768
sI36417
I3850
sI21896
I2275
sI112876
I11995
sI54668
I5791
sI120205
I12769
sI54670
I5792
sI96493
I10221
sI87441
I9273
sI21907
I2276
sI54676
I5793
sI112878
I11996
sI123801
I13131
sI114207
I12144
sI87449
I9274
sI54682
I5794
sI87453
I9275
sI21919
I2277
sI21921
I2278
sI87462
I9276
sI112881
I11998
sI54696
I5796
sI54697
I5797
sI21931
I2279
sI74653
I7920
sI54705
I5798
sI54706
I5799
sI123806
I13132
sI120246
I12774
sI120248
I12775
sI21945
I2280
sI21950
I2281
sI87495
I9279
sI67290
I7118
sI21962
I2282
sI120268
I12776
sI120269
I12777
sI87506
I9280
sI21971
I2283
sI21977
I2284
sI21979
I2285
sI21980
I2286
sI54757
I5800
sI67291
I7119
sI54760
I5801
sI14588
I1502
sI54767
I5802
sI22002
I2287
sI87540
I9282
sI54773
I5803
sI22006
I2288
sI120311
I12780
sI120314
I12781
sI118045
I12535
sI120317
I12782
sI22018
I2289
sI107435
I11410
sI22022
I2290
sI22023
I2291
sI125122
I13267
sI54793
I5804
sI82568
I8769
sI22027
I2292
sI22029
I2293
sI123821
I13136
sI22033
I2294
sI22035
I2295
sI22037
I2296
sI54808
I5806
sI22041
I2297
sI54813
I5807
sI22049
I2298
sI52827
I5602
sI54822
I5808
sI120360
I12785
sI118364
I12570
sI54833
I5809
sI22069
I2299
sI22070
I2300
sI91060
I9662
sI120378
I12786
sI120379
I12787
sI22077
I2301
sI87614
I9286
sI120384
I12789
sI120387
I12790
sI22087
I2302
sI22089
I2303
sI120394
I12791
sI54860
I5810
sI87630
I9288
sI63757
I6732
sI54866
I5811
sI118371
I12571
sI120405
I12794
sI87638
I9289
sI87640
I9290
sI54873
I5812
sI80143
I8502
sI120413
I12795
sI54878
I5813
sI120415
I12796
sI87648
I9292
sI22114
I2304
sI54883
I5814
sI54894
I5815
sI54895
I5816
sI22131
I2305
sI22132
I2306
sI58302
I6164
sI85609
I9083
sI120445
I12798
sI87680
I9293
sI120450
I12799
sI87683
I9294
sI54916
I5818
sI54918
I5819
sI54919
I5820
sI54921
I5821
sI96535
I10228
sI87696
I9295
sI120466
I12802
sI22164
I2307
sI87702
I9296
sI22170
I2308
sI85616
I9084
sI87715
I9298
sI120484
I12805
sI87717
I9299
sI22183
I2309
sI54952
I5822
sI96758
I10249
sI54954
I5823
sI54955
I5824
sI120492
I12807
sI22189
I2310
sI22193
I2311
sI54964
I5826
sI129310
I13725
sI120502
I12808
sI91081
I9664
sI54968
I5827
sI22202
I2312
sI22204
I2313
sI120509
I12809
sI87744
I9300
sI120516
I12810
sI54984
I5828
sI120521
I12812
sI87756
I9301
sI54991
I5829
sI22224
I2314
sI22225
I2315
sI120530
I12814
sI22228
I2316
sI91086
I9665
sI54999
I5830
sI22233
I2317
sI55007
I5831
sI22241
I2318
sI55012
I5833
sI12743
I1321
sI22251
I2319
sI55021
I5834
sI55022
I5835
sI85629
I9087
sI87797
I9304
sI120568
I12816
sI87801
I9305
sI55035
I5836
sI87805
I9306
sI22273
I2320
sI22274
I2321
sI55043
I5837
sI87812
I9307
sI55049
I5838
sI120586
I12817
sI120587
I12818
sI120590
I12819
sI22293
I2322
sI87833
I9308
sI120602
I12820
sI55067
I5839
sI55069
I5840
sI22303
I2323
sI22305
I2324
sI22307
I2325
sI87847
I9310
sI22314
I2326
sI22318
I2327
sI22320
I2328
sI112947
I12006
sI55095
I5842
sI22329
I2329
sI73472
I7774
sI80181
I8505
sI107488
I11417
sI87887
I9311
sI87888
I9312
sI55121
I5843
sI87891
I9313
sI22358
I2330
sI22359
I2331
sI87897
I9315
sI120671
I12822
sI55136
I5844
sI55139
I5845
sI55142
I5846
sI14652
I1508
sI55147
I5847
sI22383
I2332
sI55153
I5848
sI87926
I9317
sI123881
I13142
sI36500
I3855
sI80191
I8508
sI113132
I12031
sI120702
I12823
sI55167
I5849
sI120704
I12824
sI22401
I2333
sI22406
I2334
sI120713
I12825
sI22410
I2335
sI87950
I9319
sI87952
I9320
sI63811
I6737
sI87956
I9321
sI87959
I9322
sI22424
I2336
sI129348
I13728
sI74735
I7927
sI120736
I12826
sI87973
I9323
sI22441
I2337
sI55210
I5850
sI87980
I9324
sI120751
I12827
sI22449
I2338
sI55219
I5851
sI36510
I3857
sI55226
I5852
sI87996
I9325
sI55232
I5853
sI22468
I2339
sI55238
I5854
sI55240
I5855
sI22473
I2340
sI22474
I2341
sI55243
I5857
sI55246
I5858
sI55248
I5859
sI22481
I2342
sI88021
I9326
sI55254
I5860
sI85668
I9092
sI80207
I8512
sI101133
I10736
sI88037
I9328
sI22503
I2343
sI116409
I12379
sI120811
I12830
sI88044
I9329
sI120815
I12831
sI88048
I9330
sI55282
I5861
sI55283
I5862
sI120820
I12832
sI88053
I9331
sI120822
I12833
sI22519
I2344
sI55289
I5863
sI78220
I8311
sI88060
I9333
sI22525
I2345
sI77129
I8198
sI55295
I5864
sI55296
I5865
sI55298
I5866
sI88068
I9335
sI55303
I5867
sI22536
I2346
sI55310
I5868
sI55311
I5869
sI22545
I2347
sI41987
I4419
sI88084
I9337
sI120854
I12834
sI22551
I2348
sI88090
I9338
sI55323
I5870
sI22560
I2349
sI22561
I2350
sI22562
I2351
sI47451
I5026
sI22565
I2352
sI22568
I2353
sI120873
I12836
sI91143
I9671
sI88115
I9341
sI126284
I13397
sI120887
I12837
sI88122
I9342
sI120892
I12838
sI88131
I9343
sI88132
I9344
sI55366
I5871
sI22602
I2354
sI55371
I5873
sI120908
I12839
sI120913
I12840
sI88146
I9345
sI55380
I5874
sI88149
I9346
sI88151
I9347
sI22617
I2355
sI22622
I2356
sI120927
I12841
sI22624
I2357
sI88162
I9348
sI120931
I12842
sI55396
I5876
sI22629
I2358
sI56401
I5969
sI123921
I13145
sI120939
I12843
sI55408
I5877
sI107539
I11422
sI22644
I2359
sI120949
I12844
sI120950
I12845
sI55415
I5878
sI109867
I11670
sI88186
I9350
sI118463
I12580
sI88194
I9351
sI88196
I9352
sI55431
I5879
sI55433
I5880
sI22667
I2360
sI120974
I12847
sI55439
I5881
sI88210
I9354
sI22675
I2361
sI88212
I9355
sI22677
I2362
sI22680
I2363
sI120986
I12850
sI74778
I7930
sI120990
I12851
sI55455
I5882
sI120994
I12852
sI88228
I9356
sI22694
I2364
sI121004
I12853
sI22701
I2365
sI55471
I5884
sI22706
I2366
sI47475
I5029
sI88246
I9359
sI88247
I9360
sI55480
I5886
sI88249
I9361
sI121018
I12856
sI120396
I12792
sI121024
I12857
sI118475
I12581
sI55492
I5887
sI88264
I9362
sI121037
I12858
sI121040
I12859
sI121043
I12860
sI22741
I2367
sI22743
I2368
sI22744
I2369
sI42020
I4424
sI22746
I2370
sI88284
I9363
sI88285
I9364
sI22751
I2371
sI121057
I12863
sI121059
I12864
sI121060
I12865
sI107558
I11424
sI22759
I2372
sI22761
I2373
sI91175
I9672
sI121068
I12867
sI121070
I12868
sI88307
I9365
sI55545
I5888
sI22781
I2374
sI55553
I5889
sI55556
I5890
sI22789
I2375
sI121095
I12869
sI121096
I12870
sI22795
I2376
sI121100
I12872
sI126239
I13392
sI74798
I7932
sI88344
I9366
sI63876
I6743
sI55578
I5891
sI121117
I12873
sI55583
I5892
sI107568
I11425
sI55588
I5893
sI121127
I12875
sI88360
I9367
sI121130
I12876
sI55597
I5894
sI88371
I9368
sI121142
I12877
sI88376
I9369
sI55613
I5895
sI55617
I5896
sI121156
I12878
sI22853
I2377
sI121158
I12879
sI85729
I9103
sI88392
I9370
sI22857
I2378
sI123959
I13149
sI55628
I5897
sI22862
I2379
sI113037
I12017
sI88405
I9371
sI121174
I12880
sI123961
I13150
sI22875
I2380
sI88417
I9372
sI55650
I5898
sI88420
I9373
sI22885
I2381
sI55657
I5899
sI88427
I9374
sI88428
I9375
sI55664
I5900
sI22897
I2382
sI88438
I9376
sI88440
I9377
sI22905
I2383
sI121210
I12883
sI55675
I5903
sI22910
I2384
sI55679
I5904
sI88449
I9380
sI22914
I2385
sI88452
I9381
sI113046
I12020
sI121224
I12887
sI22922
I2386
sI100056
I10601
sI55695
I5905
sI121232
I12888
sI96664
I10243
sI22937
I2387
sI112320
I11941
sI129434
I13735
sI88478
I9382
sI22949
I2388
sI102129
I10837
sI88488
I9383
sI55721
I5906
sI74823
I7935
sI55725
I5907
sI113053
I12023
sI106604
I11325
sI85747
I9104
sI88506
I9384
sI55739
I5908
sI85873
I9113
sI22978
I2389
sI109878
I11673
sI121285
I12890
sI55751
I5909
sI74828
I7936
sI102135
I10838
sI88526
I9385
sI22991
I2390
sI55760
I5910
sI121307
I12891
sI88540
I9386
sI88541
I9387
sI88542
I9388
sI23009
I2391
sI23010
I2392
sI85756
I9105
sI107602
I11426
sI118525
I12586
sI88562
I9389
sI88567
I9390
sI88572
I9391
sI23039
I2393
sI126247
I13394
sI47531
I5033
sI55814
I5911
sI23048
I2394
sI80300
I8522
sI90240
I9566
sI121370
I12895
sI121373
I12896
sI88606
I9392
sI23071
I2395
sI121378
I12898
sI23077
I2396
sI55848
I5912
sI88620
I9393
sI23086
I2397
sI55856
I5913
sI120793
I12829
sI88628
I9394
sI88629
I9395
sI121398
I12900
sI55863
I5914
sI88632
I9396
sI121401
I12901
sI104465
I11084
sI55874
I5915
sI88644
I9397
sI23112
I2398
sI55883
I5916
sI85773
I9106
sI55888
I5917
sI88657
I9398
sI55891
I5918
sI69511
I7369
sI55896
I5919
sI121433
I12903
sI88667
I9400
sI23134
I2399
sI55903
I5920
sI121440
I12904
sI23137
I2400
sI74854
I7937
sI88678
I9401
sI88679
I9402
sI23145
I2401
sI121450
I12906
sI121454
I12907
sI55920
I5921
sI55921
I5922
sI113086
I12025
sI55927
I5923
sI55928
I5924
sI55930
I5925
sI23165
I2402
sI88703
I9403
sI124069
I13159
sI55939
I5926
sI88710
I9404
sI55943
I5927
sI88713
I9405
sI55952
I5928
sI121489
I12909
sI23189
I2403
sI23190
I2404
sI23192
I2405
sI121497
I12911
sI88730
I9406
sI121503
I12912
sI55968
I5929
sI85787
I9107
sI55972
I5930
sI124017
I13155
sI23210
I2406
sI55979
I5931
sI88750
I9407
sI118557
I12590
sI88753
I9408
sI55986
I5932
sI109886
I11674
sI23220
I2407
sI55990
I5933
sI88760
I9409
sI74869
I7940
sI105522
I11204
sI56006
I5934
sI23240
I2408
sI23245
I2409
sI88782
I9411
sI88784
I9412
sI88785
I9413
sI56021
I5935
sI88792
I9414
sI56025
I5936
sI23258
I2410
sI121563
I12915
sI117245
I12458
sI126725
I13447
sI23266
I2411
sI23270
I2412
sI121575
I12916
sI23272
I2413
sI56044
I5938
sI56047
I5939
sI56048
I5940
sI88817
I9415
sI56051
I5941
sI56052
I5942
sI74878
I7941
sI23287
I2414
sI56059
I5943
sI88832
I9417
sI23297
I2415
sI23299
I2416
sI56069
I5944
sI88841
I9418
sI23308
I2417
sI109889
I11675
sI23313
I2418
sI121618
I12918
sI129497
I13740
sI88858
I9420
sI80346
I8529
sI23327
I2419
sI56097
I5946
sI56098
I5947
sI56100
I5948
sI58502
I6190
sI121640
I12919
sI88873
I9421
sI56106
I5949
sI88877
I9422
sI88878
I9423
sI88881
I9424
sI88882
I9425
sI88885
I9426
sI121654
I12920
sI23352
I2420
sI23355
I2421
sI23356
I2422
sI86100
I9136
sI56129
I5950
sI88898
I9427
sI56134
I5951
sI121672
I12922
sI88910
I9429
sI121679
I12923
sI88914
I9430
sI23380
I2423
sI121689
I12924
sI121690
I12925
sI23390
I2424
sI88927
I9431
sI88928
I9432
sI106431
I11299
sI88934
I9433
sI23400
I2425
sI88938
I9434
sI56171
I5952
sI88942
I9435
sI23410
I2426
sI23412
I2427
sI23415
I2428
sI121895
I12949
sI56186
I5953
sI53154
I5638
sI121729
I12927
sI23427
I2429
sI23429
I2430
sI121735
I12929
sI56200
I5955
sI23433
I2431
sI88970
I9437
sI88972
I9438
sI56205
I5956
sI23438
I2432
sI56213
I5957
sI88983
I9439
sI56220
I5958
sI88989
I9440
sI88990
I9441
sI23456
I2433
sI56225
I5959
sI121765
I12933
sI89001
I9442
sI23468
I2434
sI56239
I5960
sI89010
I9443
sI121784
I12934
sI80372
I8530
sI121788
I12935
sI121789
I12936
sI56255
I5961
sI23491
I2435
sI89029
I9445
sI56262
I5962
sI121799
I12937
sI91346
I9694
sI56269
I5963
sI89038
I9447
sI129528
I13746
sI121810
I12939
sI23507
I2436
sI121812
I12940
sI129536
I13747
sI23512
I2437
sI89049
I9448
sI102223
I10850
sI121823
I12941
sI63995
I6759
sI23524
I2438
sI121829
I12943
sI23527
I2439
sI121833
I12944
sI89066
I9450
sI106623
I11328
sI23534
I2440
sI23537
I2441
sI23538
I2442
sI89076
I9451
sI80382
I8532
sI23542
I2443
sI56311
I5964
sI121848
I12945
sI85844
I9110
sI110988
I11791
sI89084
I9452
sI89085
I9453
sI89086
I9454
sI96768
I10250
sI115353
I12256
sI23561
I2444
sI56339
I5965
sI89110
I9455
sI124079
I13160
sI23581
I2445
sI89118
I9456
sI121889
I12948
sI56354
I5966
sI69467
I7363
sI89124
I9457
sI23591
I2446
sI23593
I2447
sI129544
I13749
sI23607
I2448
sI89148
I9458
sI105996
I11259
sI56384
I5967
sI89154
I9459
sI89155
I9460
sI121924
I12952
sI69473
I7364
sI23624
I2449
sI89162
I9461
sI89163
I9462
sI121933
I12953
sI56398
I5968
sI89168
I9464
sI23633
I2450
sI89171
I9465
sI56406
I5970
sI89175
I9466
sI23640
I2451
sI89179
I9467
sI74938
I7947
sI23646
I2452
sI89184
I9468
sI56419
I5971
sI56420
I5972
sI56421
I5973
sI23654
I2453
sI23655
I2454
sI89192
I9469
sI56425
I5974
sI56432
I5975
sI89202
I9470
sI56435
I5976
sI101172
I10740
sI56442
I5977
sI74943
I7948
sI89218
I9471
sI89220
I9472
sI89222
I9473
sI107713
I11434
sI23690
I2455
sI121995
I12962
sI89228
I9474
sI56461
I5978
sI23694
I2456
sI89231
I9475
sI56464
I5979
sI89235
I9476
sI107716
I11436
sI118639
I12598
sI23708
I2457
sI23710
I2458
sI23711
I2459
sI56480
I5980
sI122017
I12964
sI113179
I12037
sI122022
I12965
sI23719
I2460
sI122027
I12966
sI56493
I5981
sI56494
I5982
sI122031
I12967
sI102259
I10852
sI117541
I12486
sI16066
I1654
sI23738
I2461
sI122046
I12968
sI126510
I13424
sI104448
I11083
sI56522
I5983
sI23755
I2462
sI60803
I6428
sI56525
I5984
sI129347
I13727
sI56533
I5985
sI23766
I2463
sI56535
I5986
sI64036
I6763
sI23770
I2464
sI89314
I9481
sI89316
I9482
sI56553
I5987
sI74962
I7952
sI102269
I10854
sI74963
I7953
sI56567
I5988
sI102271
I10855
sI56573
I5989
sI88083
I9336
sI56577
I5990
sI122114
I12973
sI23813
I2465
sI89351
I9483
sI89353
I9484
sI127364
I13520
sI89355
I9485
sI122128
I12974
sI89362
I9486
sI102275
I10857
sI23829
I2466
sI94130
I9984
sI56600
I5992
sI89371
I9487
sI70626
I7479
sI89380
I9488
sI94631
I10035
sI23847
I2467
sI58588
I6197
sI56619
I5993
sI118664
I12603
sI56626
I5994
sI89403
I9489
sI122172
I12979
sI122174
I12980
sI122177
I12981
sI23876
I2468
sI23878
I2469
sI89415
I9490
sI122185
I12982
sI89421
I9491
sI89423
I9492
sI23888
I2470
sI56659
I5996
sI23892
I2471
sI122197
I12984
sI89432
I9494
sI56665
I5997
sI122202
I12985
sI115818
I12308
sI122205
I12986
sI89440
I9495
sI124134
I13165
sI23910
I2472
sI56680
I5998
sI117547
I12488
sI107751
I11441
sI113213
I12041
sI23920
I2473
sI23921
I2474
sI122226
I12988
sI23924
I2475
sI56693
I5999
sI56694
I6000
sI91369
I9697
sI56698
I6001
sI122235
I12990
sI128459
I13628
sI69525
I7370
sI91371
I9698
sI122244
I12991
sI122245
I12992
sI129601
I13753
sI89481
I9499
sI23946
I2476
sI23947
I2477
sI23956
I2478
sI122261
I12993
sI122263
I12994
sI56728
I6002
sI56730
I6003
sI23963
I2479
sI89501
I9501
sI23966
I2480
sI80453
I8537
sI122273
I12995
sI122275
I12996
sI67357
I7128
sI89509
I9503
sI23974
I2481
sI91362
I9696
sI89517
I9504
sI23988
I2482
sI23991
I2483
sI56762
I6004
sI56769
I6005
sI122306
I12997
sI24004
I2484
sI24005
I2485
sI24006
I2486
sI85921
I9116
sI122314
I12998
sI24013
I2487
sI56782
I6006
sI122319
I13000
sI69540
I7372
sI24029
I2488
sI56799
I6007
sI24032
I2489
sI56801
I6008
sI24035
I2490
sI56804
I6009
sI89573
I9506
sI56806
I6010
sI122343
I13002
sI24042
I2491
sI89582
I9508
sI122354
I13004
sI122356
I13005
sI56821
I6011
sI89592
I9509
sI24057
I2492
sI56826
I6013
sI102772
I10908
sI24063
I2493
sI24065
I2494
sI42241
I4448
sI89612
I9510
sI24081
I2495
sI122386
I13008
sI91395
I9704
sI24087
I2496
sI24090
I2497
sI89627
I9513
sI122398
I13009
sI89632
I9514
sI89635
I9515
sI24101
I2498
sI85937
I9119
sI56876
I6015
sI24109
I2499
sI24111
I2500
sI56880
I6017
sI24115
I2501
sI107785
I11444
sI109916
I11678
sI24124
I2502
sI122430
I13011
sI24127
I2503
sI24130
I2504
sI124171
I13167
sI24136
I2505
sI89674
I9518
sI56908
I6018
sI89688
I9519
sI24153
I2506
sI56922
I6019
sI24156
I2507
sI100684
I10675
sI24159
I2508
sI56932
I6020
sI56934
I6021
sI42257
I4451
sI122472
I13016
sI24172
I2509
sI24174
I2510
sI56945
I6022
sI118647
I12601
sI24180
I2511
sI56949
I6023
sI56953
I6024
sI91413
I9707
sI56960
I6025
sI89731
I9522
sI24196
I2512
sI56968
I6026
sI89741
I9523
sI122510
I13020
sI122512
I13021
sI122515
I13022
sI56981
I6027
sI122522
I13023
sI89757
I9524
sI24224
I2513
sI96880
I10266
sI24226
I2514
sI91419
I9708
sI122537
I13025
sI89774
I9525
sI89775
I9526
sI89779
I9527
sI24244
I2515
sI24249
I2516
sI122554
I13026
sI75039
I7959
sI57021
I6030
sI130652
I13863
sI122561
I13027
sI89794
I9528
sI89795
I9529
sI24260
I2517
sI89797
I9530
sI24262
I2518
sI57032
I6031
sI57034
I6032
sI57035
I6033
sI57036
I6034
sI57037
I6035
sI57039
I6036
sI122576
I13028
sI24273
I2519
sI24274
I2520
sI122579
I13029
sI129657
I13756
sI24280
I2521
sI122586
I13031
sI24286
I2522
sI24287
I2523
sI24289
I2524
sI95737
I10153
sI57062
I6040
sI113276
I12049
sI57066
I6041
sI57067
I6042
sI24303
I2525
sI89843
I9534
sI89845
I9535
sI89849
I9536
sI105558
I11208
sI24319
I2526
sI89857
I9538
sI57090
I6043
sI129665
I13758
sI57097
I6044
sI24331
I2527
sI57100
I6045
sI24338
I2528
sI75055
I7961
sI88101
I9340
sI129669
I13760
sI57120
I6046
sI57123
I6047
sI57124
I6048
sI24359
I2529
sI89901
I9540
sI57135
I6049
sI24372
I2530
sI89909
I9541
sI24375
I2531
sI122680
I13033
sI89914
I9542
sI89916
I9543
sI57151
I6050
sI89921
I9544
sI24392
I2532
sI57161
I6051
sI24395
I2533
sI24397
I2534
sI122702
I13035
sI24405
I2535
sI124217
I13174
sI24418
I2536
sI24419
I2537
sI57191
I6052
sI24424
I2538
sI24425
I2539
sI69607
I7379
sI24431
I2540
sI113299
I12052
sI57205
I6053
sI122743
I13037
sI24443
I2541
sI89980
I9545
sI57213
I6054
sI57215
I6055
sI89984
I9547
sI122755
I13038
sI89992
I9548
sI111239
I11814
sI24463
I2542
sI24468
I2543
sI85998
I9122
sI24471
I2544
sI118767
I12613
sI57246
I6056
sI57247
I6057
sI122788
I13040
sI90021
I9550
sI57256
I6058
sI90027
I9551
sI24492
I2545
sI24494
I2546
sI91464
I9713
sI24498
I2547
sI90038
I9552
sI122807
I13042
sI24509
I2548
sI122820
I13043
sI107747
I11439
sI24520
I2549
sI90057
I9553
sI90058
I9554
sI24524
I2550
sI57338
I6063
sI122830
I13045
sI58701
I6212
sI57296
I6059
sI24529
I2551
sI24533
I2552
sI24534
I2553
sI122848
I13047
sI90081
I9555
sI24546
I2554
sI80550
I8545
sI24551
I2555
sI122857
I13049
sI57325
I6060
sI24559
I2556
sI57331
I6061
sI57333
I6062
sI24570
I2557
sI57339
I6064
sI24573
I2558
sI90114
I9556
sI42326
I4456
sI86017
I9126
sI24585
I2559
sI24588
I2560
sI57361
I6065
sI122901
I13053
sI57367
I6066
sI122904
I13054
sI57369
I6067
sI57372
I6068
sI122910
I13055
sI90144
I9558
sI122914
I13056
sI57381
I6069
sI90151
I9559
sI24617
I2561
sI57387
I6070
sI57388
I6071
sI90159
I9560
sI57393
I6072
sI24626
I2562
sI57395
I6073
sI122932
I13058
sI57399
I6074
sI122938
I13059
sI122941
I13060
sI90180
I9561
sI129719
I13767
sI57421
I6075
sI57422
I6076
sI24656
I2563
sI122961
I13062
sI122963
I13063
sI24664
I2564
sI114732
I12189
sI129722
I13768
sI57438
I6077
sI122975
I13064
sI57440
I6078
sI24673
I2565
sI90210
I9562
sI24675
I2566
sI57444
I6080
sI24678
I2567
sI57448
I6081
sI111677
I11867
sI90224
I9563
sI90225
I9564
sI90227
I9565
sI57460
I6082
sI24694
I2568
sI124265
I13176
sI57468
I6083
sI57471
I6084
sI57472
I6085
sI24705
I2569
sI57474
I6086
sI24707
I2570
sI24708
I2571
sI123013
I13066
sI57479
I6087
sI24712
I2572
sI91500
I9719
sI123020
I13068
sI57487
I6088
sI90261
I9568
sI117263
I12460
sI86042
I9129
sI72838
I7716
sI129733
I13769
sI57506
I6089
sI24739
I2573
sI90276
I9570
sI57509
I6090
sI57512
I6091
sI24750
I2574
sI24753
I2575
sI90291
I9571
sI123061
I13070
sI90297
I9572
sI123066
I13071
sI24765
I2576
sI102432
I10870
sI57539
I6092
sI123076
I13072
sI90309
I9573
sI90312
I9574
sI123081
I13073
sI24778
I2577
sI90315
I9576
sI129741
I13770
sI57554
I6093
sI123097
I13074
sI24795
I2578
sI24798
I2579
sI102437
I10871
sI104483
I11087
sI24802
I2580
sI123107
I13076
sI24805
I2581
sI90344
I9577
sI75132
I7973
sI24812
I2582
sI57582
I6094
sI57583
I6095
sI90353
I9579
sI113363
I12060
sI57588
I6096
sI58750
I6217
sI90365
I9581
sI24832
I2583
sI24836
I2584
sI24843
I2585
sI57612
I6097
sI91522
I9723
sI57618
I6098
sI123166
I13079
sI24863
I2586
sI118832
I12618
sI113371
I12062
sI123172
I13081
sI24869
I2587
sI118833
I12619
sI90408
I9583
sI57643
I6099
sI57647
I6100
sI86067
I9131
sI57655
I6101
sI24888
I2588
sI123193
I13083
sI90429
I9585
sI90430
I9586
sI24897
I2589
sI4150
I451
sI57672
I6103
sI81127
I8619
sI123212
I13085
sI90445
I9588
sI90446
I9589
sI90448
I9590
sI57681
I6104
sI123218
I13086
sI13923
I1433
sI24917
I2590
sI24919
I2591
sI90457
I9591
sI107919
I11459
sI128492
I13632
sI57696
I6105
sI75152
I7975
sI90466
I9592
sI90468
I9593
sI24933
I2592
sI57702
I6106
sI57705
I6107
sI24938
I2593
sI57707
I6108
sI57711
I6109
sI123249
I13088
sI96403
I10208
sI123252
I13089
sI24956
I2594
sI90494
I9596
sI123266
I13090
sI90500
I9597
sI125730
I13346
sI24968
I2595
sI24969
I2596
sI75159
I7976
sI24973
I2597
sI80621
I8552
sI123283
I13091
sI57748
I6110
sI24982
I2598
sI90519
I9599
sI24985
I2599
sI90522
I9600
sI123293
I13093
sI24991
I2600
sI124315
I13184
sI57765
I6112
sI64241
I6778
sI57771
I6113
sI25005
I2601
sI25006
I2602
sI25008
I2603
sI123314
I13094
sI25011
I2604
sI90550
I9602
sI90555
I9603
sI90557
I9604
sI25023
I2605
sI75168
I7977
sI90562
I9605
sI123334
I13096
sI25031
I2606
sI90568
I9606
sI25033
I2607
sI64247
I6779
sI90573
I9607
sI123342
I13098
sI102477
I10874
sI25042
I2608
sI58787
I6219
sI57815
I6115
sI90586
I9608
sI90587
I9609
sI57820
I6116
sI25057
I2609
sI57826
I6117
sI25060
I2610
sI57830
I6118
sI90602
I9610
sI25068
I2611
sI57838
I6119
sI90610
I9611
sI123379
I13100
sI53332
I5654
sI75178
I7980
sI25086
I2612
sI90629
I9613
sI25094
I2613
sI90633
I9614
sI57867
I6120
sI57870
I6121
sI123410
I13101
sI57876
I6122
sI25113
I2614
sI90651
I9615
sI57887
I6123
sI123424
I13102
sI64262
I6780
sI90663
I9617
sI25130
I2615
sI57906
I6124
sI57908
I6125
sI25141
I2616
sI90680
I9619
sI57917
I6126
sI57926
I6127
sI25161
I2617
sI90699
I9620
sI123470
I13105
sI60850
I6433
sI57938
I6128
sI57942
I6129
sI25175
I2618
sI90712
I9621
sI25177
I2619
sI57946
I6131
sI57948
I6132
sI25183
I2620
sI25184
I2621
sI25185
I2622
sI57954
I6133
sI25187
I2623
sI25188
I2624
sI107964
I11461
sI25194
I2625
sI57963
I6134
sI25198
I2626
sI107965
I11462
sI90737
I9624
sI113427
I12067
sI90742
I9625
sI25207
I2627
sI57976
I6136
sI123514
I13108
sI88767
I9410
sI69740
I7392
sI80663
I8557
sI90764
I9626
sI58002
I6137
sI25237
I2628
sI129817
I13779
sI58012
I6138
sI90781
I9628
sI25247
I2629
sI123552
I13109
sI25251
I2630
sI25252
I2631
sI90789
I9630
sI25256
I2632
sI90795
I9631
sI90796
I9632
sI58031
I6139
sI58034
I6140
sI25268
I2633
sI90805
I9633
sI123465
I13104
sI90314
I9575
sI58042
I6141
sI58043
I6142
sI58047
I6143
sI124363
I13188
sI90820
I9634
sI90823
I9635
sI25297
I2634
sI25298
I2635
sI123603
I13114
sI15140
I1559
sI101861
I10818
sI58077
I6145
sI123614
I13115
sI113445
I12070
sI25314
I2636
sI128505
I13635
sI94680
I10043
sI90856
I9637
sI102524
I10878
sI120161
I12765
sI25330
I2637
sI64763
I6838
sI25335
I2638
sI25336
I2639
sI58105
I6146
sI58106
I6147
sI118911
I12628
sI123644
I13116
sI58111
I6148
sI90880
I9638
sI123652
I13117
sI107990
I11465
sI123663
I13118
sI58134
I6149
sI90903
I9639
sI90907
I9640
sI123679
I13119
sI25378
I2640
sI90918
I9641
sI25384
I2641
sI123691
I13120
sI25388
I2642
sI25390
I2643
sI100334
I10630
sI25393
I2644
sI90931
I9643
sI25397
I2645
sI121961
I12959
sI123705
I13121
sI90939
I9644
sI113461
I12073
sI123713
I13122
sI90947
I9645
sI58180
I6150
sI58185
I6151
sI58186
I6152
sI64311
I6785
sI90956
I9646
sI58192
I6153
sI58195
I6154
sI90964
I9648
sI58198
I6155
sI25434
I2646
sI15162
I1562
sI90975
I9651
sI25442
I2647
sI25443
I2648
sI58214
I6157
sI25447
I2649
sI25450
I2650
sI25454
I2651
sI80701
I8564
sI123761
I13125
sI25458
I2652
sI25464
I2653
sI58234
I6158
sI91003
I9652
sI25470
I2654
sI25472
I2655
sI123783
I13127
sI91016
I9653
sI58249
I6159
sI25482
I2656
sI91020
I9654
sI25490
I2657
sI91027
I9656
sI123800
I13130
sI58265
I6160
sI91035
I9657
sI25502
I2658
sI123807
I13133
sI91040
I9658
sI86171
I9139
sI123812
I13134
sI25510
I2659
sI123816
I13135
sI91049
I9659
sI91050
I9660
sI91052
I9661
sI25517
I2660
sI102557
I10883
sI58292
I6161
sI25525
I2661
sI58294
I6162
sI25529
I2662
sI102559
I10884
sI58300
I6163
sI123837
I13138
sI25534
I2663
sI25535
I2664
sI123840
I13139
sI25537
I2665
sI15179
I1565
sI123844
I13140
sI40131
I4212
sI6062
I635
sI58316
I6165
sI25549
I2666
sI25550
I2667
sI58320
I6166
sI58322
I6167
sI91094
I9666
sI91095
I9667
sI91100
I9668
sI91102
I9669
sI123872
I13141
sI91643
I9732
sI58876
I6230
sI58347
I6168
sI97106
I10297
sI58351
I6169
sI58352
I6170
sI102568
I10885
sI80723
I8566
sI123893
I13143
sI25590
I2668
sI25597
I2669
sI58366
I6171
sI123903
I13144
sI58368
I6172
sI25602
I2670
sI25607
I2671
sI58376
I6173
sI102572
I10886
sI58380
I6174
sI58381
I6175
sI25614
I2672
sI58385
I6176
sI58386
I6177
sI123926
I13146
sI123928
I13147
sI75268
I7988
sI25627
I2673
sI58399
I6178
sI123940
I13148
sI58886
I6233
sI25639
I2674
sI121067
I12866
sI78324
I8323
sI113501
I12080
sI25649
I2675
sI58421
I6179
sI117605
I12493
sI91193
I9673
sI123966
I13151
sI25663
I2676
sI25665
I2677
sI25666
I2678
sI58436
I6181
sI91206
I9674
sI25677
I2679
sI91214
I9676
sI124429
I13195
sI58449
I6182
sI91218
I9677
sI91223
I9678
sI123994
I13152
sI123997
I13153
sI58470
I6183
sI91239
I9679
sI58474
I6184
sI91244
I9680
sI25712
I2680
sI91249
I9681
sI91251
I9682
sI58486
I6185
sI91256
I9683
sI25721
I2681
sI53439
I5665
sI58493
I6186
sI114334
I12157
sI58496
I6187
sI58497
I6188
sI58498
I6189
sI91269
I9684
sI25734
I2682
sI124039
I13156
sI25738
I2683
sI124439
I13197
sI104126
I11045
sI58511
I6191
sI124048
I13158
sI25746
I2684
sI125246
I13283
sI58516
I6192
sI91287
I9685
sI91290
I9686
sI91291
I9687
sI91292
I9688
sI25757
I2685
sI25759
I2686
sI129904
I13791
sI25762
I2687
sI91301
I9689
sI127429
I13526
sI58909
I6239
sI91313
I9690
sI91319
I9691
sI91321
I9692
sI58555
I6194
sI124092
I13161
sI91680
I9736
sI58562
I6195
sI69835
I7403
sI124106
I13162
sI126339
I13401
sI108881
I11571
sI91343
I9693
sI58577
I6196
sI25810
I2688
sI91350
I9695
sI124119
I13163
sI124121
I13164
sI25820
I2689
sI58594
I6198
sI58595
I6199
sI58598
I6200
sI58599
I6201
sI25833
I2690
sI25835
I2691
sI91373
I9699
sI91377
I9700
sI91378
I9701
sI91379
I9702
sI25848
I2692
sI58618
I6202
sI91388
I9703
sI25857
I2693
sI58626
I6203
sI77240
I8205
sI25861
I2694
sI25862
I2695
sI124169
I13166
sI58635
I6204
sI91404
I9705
sI58638
I6205
sI25871
I2696
sI91408
I9706
sI124177
I13168
sI59311
I6272
sI58645
I6206
sI58650
I6207
sI58651
I6208
sI124193
I13170
sI25892
I2697
sI124198
I13171
sI91431
I9709
sI124200
I13172
sI124202
I13173
sI91436
I9710
sI124466
I13199
sI58670
I6209
sI91441
I9711
sI25913
I2698
sI66942
I7085
sI58684
I6210
sI91454
I9712
sI58687
I6211
sI25922
I2699
sI25926
I2700
sI25928
I2701
sI25929
I2702
sI25933
I2703
sI25934
I2704
sI25936
I2705
sI91475
I9714
sI25942
I2706
sI91480
I9716
sI25947
I2707
sI58716
I6213
sI119013
I12641
sI91489
I9717
sI25954
I2708
sI25955
I2709
sI124260
I13175
sI58729
I6214
sI58732
I6215
sI91501
I9720
sI58734
I6216
sI124272
I13177
sI46692
I4946
sI25970
I2710
sI91508
I9721
sI25974
I2711
sI91512
I9722
sI124281
I13180
sI108095
I11473
sI124284
I13181
sI25982
I2712
sI124287
I13182
sI25986
I2713
sI25989
I2714
sI108097
I11475
sI25992
I2715
sI25995
I2716
sI91533
I9724
sI26001
I2717
sI26003
I2718
sI103432
I10971
sI26007
I2719
sI4335
I471
sI26013
I2720
sI26019
I2721
sI124324
I13185
sI102641
I10898
sI58792
I6220
sI124329
I13186
sI58794
I6221
sI26029
I2722
sI26032
I2723
sI80798
I8580
sI58806
I6222
sI124345
I13187
sI26043
I2724
sI26044
I2725
sI91585
I9725
sI91586
I9726
sI26053
I2726
sI26057
I2727
sI91594
I9727
sI69879
I7406
sI58828
I6223
sI110595
I11754
sI124371
I13189
sI58836
I6224
sI91606
I9728
sI119033
I12644
sI91609
I9729
sI26074
I2728
sI124379
I13191
sI124380
I13192
sI58845
I6225
sI124382
I13193
sI58856
I6226
sI26093
I2729
sI58863
I6227
sI91634
I9730
sI26099
I2730
sI58868
I6228
sI91637
I9731
sI58875
I6229
sI26108
I2731
sI91645
I9733
sI58878
I6231
sI58881
I6232
sI47788
I5060
sI26118
I2732
sI86273
I9147
sI58888
I6234
sI91657
I9734
sI58890
I6235
sI58893
I6236
sI129965
I13795
sI91664
I9735
sI58898
I6237
sI124437
I13196
sI58903
I6238
sI26137
I2733
sI26141
I2734
sI26144
I2735
sI124452
I13198
sI26151
I2736
sI58972
I6243
sI26156
I2737
sI91697
I9737
sI58930
I6240
sI26163
I2738
sI91700
I9738
sI58936
I6241
sI105699
I11225
sI119050
I12648
sI89428
I9493
sI26178
I2739
sI124484
I13200
sI26181
I2740
sI58957
I6242
sI122380
I13007
sI124495
I13201
sI80824
I8582
sI91731
I9739
sI26200
I2741
sI75364
I7995
sI26204
I2742
sI26212
I2743
sI26213
I2744
sI87072
I9242
sI124520
I13202
sI83318
I8847
sI124525
I13204
sI26227
I2745
sI58996
I6245
sI91766
I9740
sI124538
I13206
sI59003
I6246
sI59005
I6247
sI91774
I9741
sI88164
I9349
sI124546
I13208
sI124523
I13203
sI59016
I6248
sI26250
I2746
sI59019
I6249
sI124557
I13209
sI101258
I10749
sI59023
I6250
sI121944
I12955
sI75071
I7963
sI129987
I13797
sI26265
I2747
sI124571
I13211
sI91805
I9744
sI26278
I2748
sI59047
I6251
sI124587
I13212
sI59052
I6252
sI26287
I2749
sI26291
I2750
sI26292
I2751
sI102686
I10902
sI124532
I13205
sI124603
I13214
sI121991
I12961
sI26302
I2752
sI124609
I13215
sI111080
I11796
sI124615
I13217
sI124618
I13218
sI26315
I2753
sI26317
I2754
sI59086
I6253
sI91856
I9746
sI26321
I2755
sI102691
I10903
sI91860
I9747
sI26325
I2756
sI91868
I9748
sI91870
I9749
sI59103
I6254
sI91873
I9750
sI124647
I13220
sI91882
I9751
sI86311
I9151
sI124654
I13221
sI26353
I2757
sI91892
I9752
sI26357
I2758
sI124662
I13222
sI91895
I9753
sI59129
I6255
sI26367
I2759
sI26368
I2760
sI26371
I2761
sI26372
I2762
sI124545
I13207
sI26376
I2763
sI59145
I6256
sI124683
I13224
sI91916
I9754
sI108162
I11482
sI124688
I13225
sI124689
I13226
sI59158
I6257
sI59160
I6258
sI106451
I11301
sI75397
I7997
sI91938
I9756
sI91940
I9757
sI26405
I2764
sI59176
I6259
sI124715
I13228
sI124716
I13229
sI91949
I9758
sI124719
I13230
sI91784
I9742
sI59189
I6260
sI26423
I2765
sI86325
I9153
sI26432
I2766
sI26434
I2767
sI86326
I9154
sI108172
I11485
sI59212
I6261
sI26445
I2768
sI91984
I9759
sI91985
I9760
sI26450
I2769
sI59223
I6262
sI80868
I8587
sI59226
I6263
sI124763
I13231
sI26460
I2770
sI80869
I8588
sI124771
I13232
sI26468
I2771
sI92006
I9762
sI124561
I13210
sI59242
I6264
sI92012
I9763
sI26477
I2772
sI92016
I9764
sI124786
I13233
sI108179
I11486
sI124788
I13234
sI26488
I2773
sI26496
I2774
sI26498
I2775
sI26499
I2776
sI124805
I13235
sI103833
I11010
sI86337
I9157
sI26504
I2777
sI59274
I6265
sI124812
I13236
sI92047
I9765
sI92052
I9766
sI59286
I6266
sI91801
I9743
sI124824
I13237
sI59292
I6267
sI59294
I6268
sI59296
I6269
sI59299
I6270
sI90356
I9580
sI59305
I6271
sI26543
I2778
sI92082
I9767
sI59316
I6273
sI26551
I2779
sI26558
I2780
sI26559
I2781
sI59328
I6275
sI124866
I13239
sI59333
I6276
sI59336
I6277
sI26571
I2782
sI92108
I9768
sI92112
I9769
sI26581
I2783
sI124886
I13240
sI92121
I9770
sI92122
I9771
sI26591
I2784
sI59363
I6278
sI91814
I9745
sI124903
I13241
sI92137
I9772
sI26602
I2785
sI92143
I9773
sI124913
I13242
sI26610
I2786
sI26620
I2787
sI119125
I12659
sI92160
I9774
sI59393
I6280
sI59400
I6281
sI124588
I13213
sI80898
I8593
sI26639
I2788
sI59408
I6282
sI59412
I6283
sI59413
I6284
sI92184
I9775
sI26649
I2789
sI26656
I2790
sI59426
I6286
sI92196
I9776
sI113670
I12090
sI92199
I9777
sI26664
I2791
sI92204
I9778
sI59437
I6287
sI92208
I9779
sI9907
I1037
sI26677
I2792
sI124982
I13245
sI26679
I2793
sI26680
I2794
sI26681
I2795
sI124186
I13169
sI26683
I2796
sI92220
I9781
sI26689
I2797
sI124997
I13247
sI26695
I2798
sI92232
I9782
sI92236
I9783
sI26703
I2799
sI125009
I13248
sI59474
I6288
sI125013
I13249
sI125015
I13250
sI59484
I6289
sI59490
I6290
sI108219
I11495
sI26724
I2800
sI26729
I2801
sI125034
I13252
sI26733
I2802
sI110168
I11703
sI92545
I9818
sI59505
I6291
sI59506
I6292
sI26743
I2803
sI125048
I13253
sI89272
I9477
sI92287
I9784
sI92291
I9785
sI92293
I9786
sI86380
I9161
sI92304
I9787
sI125074
I13254
sI108227
I11497
sI26773
I2804
sI92311
I9788
sI125080
I13257
sI59545
I6293
sI59547
I6294
sI26780
I2805
sI59549
I6295
sI92319
I9790
sI59552
I6296
sI26785
I2806
sI125090
I13260
sI125091
I13261
sI59558
I6297
sI26792
I2807
sI59562
I6299
sI92333
I9791
sI26798
I2808
sI116552
I12398
sI125105
I13264
sI125107
I13265
sI125108
I13266
sI59573
I6300
sI59576
I6301
sI92345
I9793
sI26810
I2809
sI92348
I9794
sI92349
I9795
sI59582
I6302
sI4469
I483
sI26816
I2810
sI92353
I9796
sI26818
I2811
sI92355
I9797
sI26823
I2812
sI108236
I11498
sI59596
I6304
sI92368
I9798
sI59601
I6305
sI125142
I13268
sI26843
I2813
sI92381
I9799
sI64549
I6817
sI59617
I6307
sI127465
I13534
sI59621
I6308
sI104490
I11088
sI117019
I12439
sI125164
I13269
sI125165
I13270
sI26863
I2814
sI124627
I13219
sI125172
I13271
sI59638
I6309
sI92409
I9802
sI59643
I6310
sI26879
I2815
sI125186
I13272
sI97323
I10319
sI125189
I13273
sI125191
I13274
sI92425
I9803
sI26891
I2816
sI59661
I6311
sI26894
I2817
sI92431
I9805
sI59664
I6312
sI92433
I9806
sI92437
I9807
sI125206
I13276
sI92439
I9808
sI26904
I2818
sI125211
I13277
sI125212
I13278
sI59677
I6313
sI59679
I6314
sI125222
I13279
sI26920
I2819
sI125225
I13280
sI125230
I13281
sI26927
I2820
sI130741
I13871
sI92466
I9810
sI125240
I13282
sI92473
I9811
sI42719
I4507
sI59709
I6315
sI59710
I6316
sI59711
I6317
sI125248
I13284
sI125251
I13285
sI26948
I2821
sI92489
I9813
sI92490
I9814
sI108258
I11500
sI59726
I6318
sI119181
I12665
sI125264
I13286
sI125265
I13287
sI59740
I6319
sI59741
I6320
sI26974
I2822
sI101282
I10750
sI125281
I13288
sI59746
I6321
sI53649
I5694
sI26984
I2823
sI125289
I13289
sI26986
I2824
sI125294
I13290
sI103465
I10974
sI26999
I2825
sI92536
I9817
sI118741
I12610
sI110012
I11687
sI80960
I8601
sI125314
I13292
sI27012
I2826
sI27014
I2827
sI59790
I6323
sI92562
I9820
sI27028
I2828
sI27029
I2829
sI92567
I9821
sI92568
I9822
sI125337
I13294
sI27034
I2830
sI59805
I6324
sI59809
I6325
sI125350
I13296
sI125351
I13297
sI59816
I6326
sI27049
I2831
sI27050
I2832
sI27051
I2833
sI27054
I2834
sI125363
I13299
sI59829
I6327
sI27063
I2835
sI92600
I9824
sI59835
I6329
sI125376
I13300
sI59841
I6330
sI92612
I9826
sI37281
I3925
sI92620
I9827
sI27087
I2836
sI125398
I13301
sI59863
I6331
sI27097
I2837
sI59868
I6332
sI59872
I6333
sI80976
I8602
sI27106
I2838
sI86438
I9169
sI59878
I6334
sI59879
I6335
sI92649
I9828
sI125418
I13302
sI92651
I9829
sI113746
I12093
sI59890
I6336
sI75518
I8007
sI86441
I9171
sI92664
I9830
sI27133
I2839
sI124672
I13223
sI27138
I2840
sI125445
I13306
sI125447
I13307
sI125450
I13308
sI59915
I6337
sI125452
I13309
sI59917
I6338
sI92686
I9832
sI27155
I2841
sI121950
I12956
sI53678
I5696
sI125464
I13310
sI27162
I2842
sI27165
I2843
sI130139
I13811
sI125478
I13311
sI125480
I13312
sI27177
I2844
sI125489
I13313
sI125490
I13314
sI27187
I2845
sI92724
I9833
sI42761
I4513
sI59963
I6339
sI125503
I13315
sI59970
I6340
sI27205
I2846
sI27206
I2847
sI59976
I6341
sI102839
I10916
sI125516
I13317
sI59982
I6342
sI92753
I9836
sI27219
I2848
sI27224
I2849
sI92761
I9837
sI119550
I12711
sI59996
I6343
sI130453
I13838
sI125537
I13319
sI125539
I13320
sI60004
I6344
sI60008
I6345
sI118749
I12611
sI130151
I13812
sI27244
I2850
sI92782
I9838
sI60015
I6346
sI27250
I2851
sI60020
I6347
sI27254
I2852
sI27255
I2853
sI27257
I2854
sI60027
I6348
sI92796
I9841
sI125565
I13322
sI113294
I12051
sI27265
I2855
sI87107
I9244
sI27267
I2856
sI125574
I13323
sI125576
I13324
sI27273
I2857
sI60043
I6349
sI60048
I6350
sI107839
I11450
sI60050
I6351
sI92819
I9843
sI125588
I13327
sI60057
I6352
sI60058
I6353
sI125595
I13328
sI45645
I4831
sI92835
I9845
sI125605
I13330
sI60070
I6354
sI125610
I13331
sI102855
I10918
sI27310
I2858
sI92850
I9846
sI60085
I6355
sI125622
I13332
sI27320
I2859
sI91935
I9755
sI122824
I13044
sI92865
I9847
sI77289
I8210
sI59831
I6328
sI60103
I6357
sI130462
I13839
sI125651
I13333
sI27351
I2860
sI125657
I13334
sI125659
I13335
sI125661
I13336
sI27358
I2861
sI124709
I13227
sI125664
I13337
sI92897
I9848
sI92900
I9849
sI125672
I13338
sI113788
I12096
sI42791
I4519
sI86482
I9176
sI92910
I9850
sI27376
I2862
sI125681
I13340
sI60146
I6358
sI60148
I6359
sI60152
I6360
sI125691
I13341
sI125696
I13342
sI60162
I6361
sI108331
I11509
sI60165
I6362
sI92935
I9852
sI27400
I2863
sI60169
I6364
sI92940
I9854
sI60173
I6365
sI125710
I13344
sI27407
I2864
sI27412
I2865
sI27413
I2866
sI27414
I2867
sI27416
I2868
sI125728
I13345
sI27426
I2869
sI92963
I9857
sI120206
I12770
sI60197
I6367
sI60200
I6368
sI71003
I7528
sI125742
I13347
sI125745
I13348
sI27442
I2870
sI60214
I6369
sI125757
I13349
sI92990
I9858
sI27455
I2871
sI125760
I13350
sI60225
I6370
sI125303
I13291
sI91478
I9715
sI60230
I6371
sI93001
I9859
sI60236
I6372
sI27471
I2872
sI27474
I2873
sI60244
I6373
sI27480
I2874
sI27482
I2875
sI60251
I6374
sI27488
I2876
sI97424
I10330
sI125341
I13295
sI60262
I6375
sI93032
I9863
sI60265
I6376
sI60269
I6377
sI60270
I6378
sI27504
I2877
sI60274
I6379
sI125811
I13352
sI111120
I11800
sI27511
I2878
sI27512
I2879
sI93051
I9866
sI93059
I9867
sI27527
I2880
sI27536
I2881
sI125844
I13353
sI53742
I5704
sI27544
I2882
sI93082
I9870
sI27548
I2883
sI125854
I13354
sI27551
I2884
sI60321
I6381
sI93090
I9871
sI27555
I2885
sI93092
I9872
sI60325
I6382
sI27558
I2886
sI130027
I13800
sI125872
I13355
sI27569
I2887
sI93108
I9874
sI27573
I2888
sI108361
I11513
sI125881
I13356
sI97439
I10334
sI108362
I11514
sI27585
I2889
sI108363
I11515
sI60356
I6383
sI27589
I2890
sI60358
I6384
sI125895
I13357
sI125896
I13358
sI125897
I13359
sI60362
I6385
sI125900
I13360
sI60365
I6386
sI27599
I2891
sI125908
I13361
sI27610
I2892
sI125920
I13362
sI27617
I2893
sI60389
I6389
sI93159
I9876
sI93160
I9877
sI60395
I6390
sI93165
I9878
sI27631
I2894
sI60400
I6391
sI93170
I9879
sI27637
I2895
sI93175
I9880
sI27640
I2896
sI60409
I6392
sI60411
I6393
sI104348
I11068
sI15530
I1600
sI27646
I2897
sI60418
I6394
sI60419
I6395
sI27657
I2898
sI27659
I2899
sI125964
I13366
sI27661
I2900
sI93198
I9883
sI125967
I13367
sI27665
I2901
sI27666
I2902
sI125974
I13368
sI27672
I2903
sI15535
I1601
sI93212
I9884
sI117589
I12491
sI60450
I6396
sI125987
I13369
sI119302
I12679
sI93222
I9885
sI125991
I13370
sI91996
I9761
sI27690
I2904
sI102919
I10922
sI113843
I12106
sI27701
I2905
sI27704
I2906
sI81076
I8613
sI126010
I13371
sI27709
I2907
sI128064
I13587
sI93259
I9886
sI126031
I13372
sI93264
I9887
sI60499
I6398
sI126036
I13373
sI27734
I2908
sI60505
I6399
sI60507
I6400
sI60509
I6401
sI60510
I6402
sI93279
I9888
sI60512
I6403
sI93281
I9890
sI93284
I9891
sI27749
I2909
sI93286
I9892
sI27752
I2910
sI86546
I9180
sI27758
I2911
sI27760
I2912
sI27762
I2913
sI93300
I9893
sI60546
I6406
sI108395
I11519
sI60551
I6407
sI93321
I9894
sI60554
I6408
sI93325
I9895
sI27790
I2914
sI75629
I8024
sI27792
I2915
sI93329
I9896
sI60563
I6409
sI93334
I9898
sI27801
I2916
sI126107
I13378
sI93344
I9899
sI126116
I13379
sI93349
I9900
sI60582
I6410
sI60583
I6411
sI126120
I13381
sI93353
I9902
sI27820
I2917
sI91490
I9718
sI93359
I9903
sI126128
I13382
sI60593
I6412
sI93362
I9904
sI60598
I6413
sI93369
I9905
sI60602
I6414
sI27836
I2918
sI60606
I6415
sI60607
I6416
sI126144
I13383
sI93377
I9907
sI126146
I13384
sI81099
I8616
sI93380
I9908
sI119329
I12683
sI58757
I6218
sI27850
I2919
sI93387
I9910
sI27854
I2920
sI27855
I2921
sI60626
I6417
sI102947
I10928
sI27860
I2922
sI27861
I2923
sI93398
I9911
sI93399
I9912
sI93402
I9913
sI93404
I9914
sI60637
I6418
sI27870
I2924
sI126176
I13386
sI93411
I9915
sI27878
I2925
sI130257
I13822
sI93417
I9916
sI60650
I6419
sI27888
I2926
sI93430
I9917
sI97492
I10341
sI93434
I9918
sI60667
I6420
sI93437
I9920
sI126209
I13389
sI93444
I9921
sI126217
I13390
sI93452
I9922
sI126227
I13391
sI81113
I8618
sI97498
I10343
sI60703
I6421
sI27939
I2927
sI126245
I13393
sI86577
I9182
sI113884
I12113
sI27948
I2928
sI93485
I9924
sI60718
I6422
sI93489
I9925
sI27954
I2929
sI119347
I12685
sI27959
I2930
sI126266
I13395
sI27969
I2931
sI60738
I6423
sI7478
I769
sI27977
I2932
sI93516
I9926
sI113890
I12115
sI113318
I12054
sI126288
I13398
sI93523
I9927
sI27990
I2933
sI93536
I9928
sI126305
I13399
sI60770
I6424
sI93541
I9930
sI28009
I2934
sI93546
I9931
sI15591
I1610
sI60780
I6425
sI60782
I6426
sI93556
I9932
sI28021
I2935
sI93558
I9933
sI28031
I2936
sI60800
I6427
sI93570
I9934
sI28035
I2937
sI93573
I9935
sI28041
I2938
sI126348
I13403
sI60819
I6429
sI60820
I6430
sI28053
I2939
sI28055
I2940
sI60824
I6431
sI28057
I2941
sI126363
I13404
sI28061
I2942
sI28065
I2943
sI60835
I6432
sI126373
I13405
sI126375
I13406
sI28075
I2944
sI28082
I2945
sI60851
I6434
sI93620
I9937
sI60854
I6435
sI28088
I2946
sI126393
I13407
sI28092
I2947
sI126398
I13408
sI126401
I13409
sI93635
I9938
sI60869
I6436
sI113322
I12055
sI93643
I9939
sI126413
I13411
sI93647
I9940
sI93648
I9941
sI126417
I13413
sI28118
I2948
sI28120
I2949
sI60891
I6437
sI93661
I9942
sI28128
I2950
sI28131
I2951
sI60900
I6438
sI126437
I13415
sI70225
I7441
sI28139
I2952
sI60909
I6439
sI86611
I9186
sI97534
I10348
sI124841
I13238
sI28154
I2953
sI98048
I10402
sI60927
I6440
sI60928
I6441
sI126465
I13416
sI113324
I12056
sI28164
I2954
sI28165
I2955
sI126473
I13418
sI119383
I12691
sI60940
I6443
sI60942
I6444
sI126480
I13419
sI117689
I12501
sI28178
I2956
sI60947
I6445
sI90411
I9584
sI28187
I2957
sI28189
I2958
sI113925
I12118
sI93730
I9944
sI126499
I13422
sI60964
I6446
sI28197
I2959
sI126504
I13423
sI119388
I12693
sI93739
I9946
sI60974
I6448
sI126511
I13425
sI126512
I13426
sI93746
I9947
sI28211
I2960
sI93751
I9948
sI126521
I13429
sI64778
I6839
sI28223
I2961
sI28226
I2962
sI28229
I2963
sI28230
I2964
sI108209
I11491
sI64781
I6841
sI108472
I11532
sI93781
I9949
sI126550
I13430
sI61020
I6450
sI113883
I12112
sI61023
I6451
sI28258
I2965
sI28260
I2966
sI28261
I2967
sI61030
I6452
sI28263
I2968
sI119399
I12694
sI28269
I2969
sI61039
I6453
sI61041
I6454
sI59326
I6274
sI123148
I13078
sI28280
I2970
sI126585
I13431
sI61050
I6455
sI28283
I2971
sI28286
I2972
sI126595
I13432
sI61064
I6456
sI108964
I11582
sI28301
I2973
sI126610
I13433
sI28308
I2974
sI61078
I6457
sI61083
I6458
sI61085
I6459
sI126626
I13434
sI126628
I13435
sI93865
I9951
sI28331
I2975
sI86642
I9189
sI61109
I6461
sI28343
I2976
sI126650
I13437
sI93884
I9952
sI86645
I9190
sI126657
I13438
sI93890
I9953
sI28356
I2977
sI93895
I9955
sI126664
I13440
sI61129
I6462
sI61130
I6463
sI119415
I12699
sI61133
I6464
sI61137
I6465
sI61138
I6466
sI126675
I13441
sI122060
I12969
sI28375
I2978
sI78415
I8331
sI53882
I5718
sI28382
I2979
sI28387
I2980
sI93925
I9958
sI28390
I2981
sI93928
I9959
sI61164
I6467
sI28401
I2982
sI126706
I13444
sI126708
I13445
sI93941
I9960
sI126710
I13446
sI100239
I10620
sI116606
I12405
sI93960
I9961
sI93963
I9962
sI126733
I13448
sI113965
I12122
sI126742
I13450
sI86660
I9193
sI28442
I2983
sI126747
I13451
sI126749
I13452
sI61215
I6468
sI126754
I13454
sI126755
I13455
sI61223
I6469
sI28461
I2984
sI126767
I13456
sI28466
I2985
sI61237
I6470
sI28471
I2986
sI94009
I9964
sI92603
I9825
sI94015
I9965
sI126785
I13459
sI126787
I13460
sI28485
I2987
sI28488
I2988
sI28489
I2989
sI94027
I9967
sI96968
I10281
sI61265
I6471
sI94034
I9968
sI126803
I13462
sI61270
I6472
sI126809
I13463
sI126429
I13414
sI61279
I6473
sI70288
I7445
sI126818
I13464
sI94052
I9970
sI28519
I2990
sI94059
I9971
sI70290
I7446
sI61295
I6474
sI94066
I9973
sI28536
I2991
sI61307
I6475
sI101412
I10771
sI94079
I9974
sI126852
I13467
sI94085
I9975
sI97601
I10358
sI61320
I6476
sI28556
I2992
sI94096
I9977
sI61331
I6477
sI118793
I12615
sI61338
I6478
sI93372
I9906
sI28572
I2993
sI61342
I6479
sI28576
I2994
sI28577
I2995
sI94117
I9981
sI28583
I2996
sI61353
I6480
sI28586
I2997
sI61355
I6481
sI28588
I2998
sI28589
I2999
sI94126
I9983
sI61359
I6482
sI61361
I6483
sI28594
I3000
sI28597
I3001
sI28599
I3002
sI61368
I6485
sI94137
I9985
sI126917
I13470
sI94152
I9986
sI75150
I7974
sI126937
I13471
sI94171
I9987
sI28636
I3003
sI28638
I3004
sI126944
I13472
sI61413
I6486
sI94184
I9988
sI126953
I13473
sI28651
I3005
sI126958
I13474
sI94200
I9989
sI61435
I6487
sI94204
I9990
sI61441
I6488
sI28676
I3006
sI94214
I9991
sI61448
I6489
sI28681
I3007
sI28683
I3008
sI94220
I9992
sI94221
I9993
sI61457
I6490
sI94227
I9994
sI61460
I6491
sI119470
I12704
sI61464
I6492
sI28697
I3009
sI61466
I6493
sI28699
I3010
sI127008
I13479
sI127009
I13480
sI61474
I6494
sI94244
I9995
sI61477
I6495
sI94248
I9996
sI28714
I3011
sI28716
I3012
sI127021
I13482
sI28724
I3013
sI61494
I6496
sI127031
I13483
sI127032
I13484
sI28731
I3014
sI28733
I3015
sI94270
I9999
sI127042
I13485
sI52240
I5532
sI127048
I13486
sI94281
I10000
sI28746
I3016
sI61515
I6497
sI94284
I10001
sI127053
I13488
sI127054
I13489
sI124941
I13243
sI28752
I3017
sI28758
I3018
sI28759
I3019
sI94300
I10002
sI61536
I6498
sI53947
I5727
sI127076
I13490
sI94315
I10004
sI28784
I3020
sI81256
I8631
sI127090
I13492
sI28787
I3021
sI61557
I6499
sI61561
I6500
sI61563
I6501
sI61567
I6502
sI28800
I3022
sI101343
I10756
sI28809
I3023
sI61580
I6503
sI66532
I7036
sI28823
I3024
sI127132
I13493
sI86725
I9199
sI94368
I10007
sI94370
I10008
sI127141
I13495
sI28838
I3025
sI53959
I5730
sI127148
I13496
sI61613
I6504
sI66314
I7007
sI61620
I6505
sI28853
I3026
sI94390
I10009
sI61623
I6506
sI61626
I6507
sI127163
I13498
sI61629
I6508
sI127166
I13499
sI108576
I11545
sI94405
I10010
sI43041
I4543
sI127176
I13501
sI28874
I3027
sI94411
I10011
sI61647
I6510
sI28881
I3028
sI94418
I10012
sI61651
I6511
sI28886
I3029
sI28889
I3030
sI61659
I6512
sI28893
I3031
sI61671
I6513
sI127208
I13503
sI94441
I10015
sI61675
I6514
sI123169
I13080
sI127214
I13504
sI94447
I10016
sI28912
I3032
sI94449
I10017
sI28915
I3033
sI94453
I10019
sI61688
I6515
sI61695
I6516
sI28928
I3034
sI61697
I6517
sI28930
I3035
sI94473
I10021
sI113350
I12058
sI28945
I3036
sI94483
I10022
sI86072
I9132
sI127258
I13509
sI28955
I3037
sI28956
I3038
sI61725
I6518
sI15749
I1624
sI61730
I6519
sI127270
I13510
sI28969
I3039
sI94508
I10025
sI28974
I3040
sI28976
I3041
sI92211
I9780
sI37598
I3965
sI28986
I3042
sI94524
I10026
sI61757
I6521
sI127294
I13511
sI28992
I3043
sI28995
I3044
sI127301
I13512
sI94540
I10027
sI61774
I6522
sI127311
I13513
sI75832
I8049
sI29012
I3045
sI127319
I13514
sI94552
I10029
sI127324
I13515
sI124986
I13246
sI29023
I3046
sI94564
I10030
sI127333
I13516
sI29032
I3047
sI94573
I10031
sI103533
I10977
sI61811
I6523
sI127353
I13517
sI61820
I6524
sI4842
I517
sI29054
I3048
sI127359
I13518
sI75840
I8051
sI127362
I13519
sI94596
I10032
sI127365
I13521
sI29062
I3049
sI94599
I10033
sI94601
I10034
sI127372
I13522
sI61839
I6525
sI97688
I10363
sI61852
I6526
sI61856
I6527
sI29091
I3050
sI61863
I6528
sI127400
I13523
sI94637
I10036
sI94638
I10037
sI94642
I10038
sI117720
I12506
sI61877
I6529
sI75849
I8054
sI127416
I13524
sI29113
I3051
sI29115
I3052
sI61886
I6531
sI75851
I8055
sI29125
I3053
sI94662
I10041
sI29128
I3054
sI29130
I3055
sI29131
I3056
sI97698
I10366
sI127438
I13528
sI94671
I10042
sI127440
I13529
sI61905
I6533
sI29138
I3057
sI29139
I3058
sI70393
I7459
sI29144
I3059
sI94682
I10044
sI127451
I13531
sI61916
I6535
sI94685
I10045
sI94686
I10046
sI29157
I3060
sI127463
I13533
sI61928
I6536
sI29161
I3061
sI94700
I10048
sI61933
I6537
sI61934
I6538
sI94703
I10049
sI112798
I11987
sI94711
I10050
sI127481
I13535
sI127485
I13536
sI29186
I3062
sI127491
I13538
sI110085
I11698
sI29202
I3063
sI86787
I9209
sI29205
I3064
sI61984
I6539
sI29218
I3065
sI127527
I13539
sI127528
I13540
sI127530
I13541
sI61995
I6540
sI61998
I6541
sI127537
I13542
sI62005
I6542
sI62009
I6543
sI62011
I6544
sI29244
I3066
sI29246
I3067
sI94783
I10051
sI62019
I6547
sI86082
I9135
sI29253
I3068
sI62022
I6548
sI62028
I6549
sI94798
I10053
sI62031
I6550
sI127571
I13544
sI70414
I7460
sI127578
I13545
sI29277
I3069
sI62046
I6551
sI29279
I3070
sI29281
I3071
sI94820
I10055
sI127589
I13547
sI29288
I3072
sI94827
I10056
sI94830
I10057
sI94832
I10058
sI105724
I11228
sI94838
I10059
sI125033
I13251
sI29305
I3073
sI94844
I10060
sI94845
I10061
sI29311
I3074
sI29313
I3075
sI62083
I6552
sI29317
I3076
sI127637
I13550
sI127641
I13551
sI111181
I11805
sI130501
I13844
sI62112
I6553
sI29347
I3077
sI62116
I6555
sI94887
I10063
sI29352
I3078
sI94889
I10064
sI62122
I6556
sI29355
I3079
sI62129
I6558
sI29362
I3080
sI94899
I10066
sI86814
I9213
sI62135
I6559
sI29369
I3081
sI29372
I3082
sI94911
I10068
sI94912
I10069
sI117729
I12507
sI29382
I3083
sI124276
I13178
sI86176
I9140
sI94925
I10070
sI94927
I10071
sI29392
I3084
sI29393
I3085
sI129821
I13780
sI94932
I10072
sI60991
I6449
sI29403
I3086
sI62174
I6560
sI62175
I6561
sI127714
I13556
sI62183
I6562
sI94956
I10073
sI94957
I10074
sI29427
I3087
sI29429
I3088
sI29432
I3089
sI29433
I3090
sI127743
I13557
sI94976
I10076
sI124278
I13179
sI62214
I6563
sI127756
I13559
sI127758
I13560
sI75047
I7960
sI97752
I10370
sI62226
I6564
sI114137
I12138
sI29464
I3091
sI29467
I3092
sI95004
I10077
sI95006
I10078
sI62241
I6565
sI29474
I3093
sI29477
I3094
sI127782
I13563
sI62249
I6567
sI62250
I6568
sI29488
I3095
sI29489
I3096
sI127794
I13564
sI95029
I10079
sI29497
I3097
sI95036
I10080
sI127805
I13566
sI62271
I6569
sI95040
I10081
sI62278
I6570
sI62279
I6571
sI62281
I6572
sI29514
I3098
sI127819
I13567
sI104640
I11103
sI62287
I6573
sI62288
I6574
sI119916
I12733
sI95058
I10083
sI127829
I13568
sI76271
I8096
sI95065
I10084
sI125431
I13304
sI75919
I8061
sI95075
I10085
sI127851
I13569
sI62318
I6575
sI62320
I6576
sI127858
I13570
sI125075
I13255
sI70463
I7464
sI125077
I13256
sI62337
I6577
sI62338
I6578
sI29572
I3099
sI29577
I3100
sI29579
I3101
sI70466
I7465
sI29582
I3102
sI127888
I13571
sI127893
I13572
sI95127
I10086
sI29592
I3103
sI119620
I12717
sI127899
I13573
sI127902
I13574
sI95135
I10088
sI62368
I6581
sI127907
I13575
sI127909
I13576
sI62375
I6582
sI81394
I8637
sI92317
I9789
sI29617
I3104
sI29618
I3105
sI62388
I6583
sI125087
I13258
sI104611
I11097
sI62405
I6584
sI62406
I6585
sI125089
I13259
sI62413
I6586
sI29646
I3106
sI127954
I13578
sI29651
I3107
sI62421
I6587
sI95193
I10089
sI95194
I10090
sI62427
I6588
sI62435
I6589
sI95204
I10091
sI29669
I3108
sI103249
I10948
sI95212
I10092
sI29677
I3109
sI127982
I13581
sI62447
I6591
sI59560
I6298
sI29682
I3110
sI29683
I3111
sI95223
I10093
sI105737
I11231
sI127997
I13582
sI29694
I3112
sI62463
I6592
sI108715
I11558
sI29701
I3113
sI95238
I10094
sI29705
I3114
sI29711
I3115
sI29717
I3116
sI62488
I6593
sI95258
I10096
sI62491
I6594
sI62492
I6595
sI29726
I3117
sI29729
I3118
sI62504
I6596
sI95273
I10098
sI83916
I8912
sI62509
I6597
sI95281
I10100
sI29748
I3119
sI62520
I6599
sI29753
I3120
sI62522
I6600
sI29760
I3121
sI95299
I10102
sI95302
I10103
sI29767
I3122
sI95307
I10104
sI29775
I3123
sI95316
I10105
sI29782
I3124
sI108729
I11559
sI29787
I3125
sI62560
I6601
sI95332
I10106
sI62565
I6602
sI101376
I10762
sI29800
I3126
sI62571
I6604
sI62572
I6605
sI81426
I8639
sI95342
I10108
sI29807
I3127
sI62578
I6606
sI95347
I10109
sI62587
I6607
sI62592
I6608
sI59584
I6303
sI29827
I3128
sI29829
I3129
sI43201
I4554
sI95368
I10110
sI128137
I13595
sI62602
I6610
sI62605
I6611
sI128143
I13596
sI128151
I13597
sI62619
I6612
sI62623
I6613
sI29857
I3130
sI29858
I3131
sI95395
I10111
sI29862
I3132
sI128167
I13598
sI62635
I6614
sI95405
I10113
sI62638
I6615
sI62639
I6616
sI128178
I13600
sI95412
I10114
sI62646
I6617
sI29879
I3133
sI95419
I10116
sI95421
I10117
sI70517
I7469
sI29888
I3134
sI29889
I3135
sI128194
I13603
sI95427
I10119
sI95433
I10120
sI29900
I3136
sI29906
I3137
sI29907
I3138
sI29908
I3139
sI95445
I10121
sI62678
I6618
sI95449
I10122
sI113080
I12024
sI29915
I3140
sI29917
I3141
sI95454
I10123
sI29920
I3142
sI29921
I3143
sI95458
I10124
sI62693
I6619
sI62697
I6620
sI29931
I3144
sI95468
I10125
sI103294
I10953
sI95479
I10126
sI29949
I3145
sI62719
I6621
sI95492
I10128
sI62729
I6622
sI101892
I10821
sI29963
I3146
sI95500
I10129
sI62733
I6623
sI95503
I10130
sI29968
I3147
sI128273
I13609
sI62739
I6624
sI29974
I3148
sI62745
I6625
sI128283
I13610
sI95516
I10131
sI95519
I10132
sI62752
I6626
sI29985
I3149
sI59611
I6306
sI29988
I3150
sI29991
I3151
sI62761
I6627
sI70535
I7472
sI62765
I6628
sI62769
I6629
sI128313
I13611
sI95546
I10134
sI92383
I9800
sI128318
I13613
sI95551
I10135
sI62786
I6630
sI103307
I10954
sI30024
I3152
sI30030
I3153
sI62799
I6631
sI128336
I13614
sI62801
I6632
sI30036
I3154
sI95575
I10137
sI30041
I3155
sI62811
I6633
sI62812
I6634
sI128349
I13616
sI92389
I9801
sI30048
I3156
sI130619
I13859
sI30052
I3157
sI62823
I6635
sI128362
I13617
sI112296
I11937
sI95596
I10140
sI128365
I13618
sI30062
I3158
sI128370
I13619
sI30068
I3159
sI30069
I3160
sI30070
I3161
sI30072
I3162
sI30075
I3163
sI95616
I10142
sI62849
I6636
sI95621
I10143
sI62855
I6637
sI62858
I6638
sI30094
I3164
sI95632
I10144
sI62865
I6639
sI108782
I11563
sI128406
I13621
sI95639
I10145
sI128408
I13622
sI128409
I13623
sI30108
I3165
sI95651
I10146
sI95660
I10147
sI128429
I13625
sI126483
I13420
sI97864
I10381
sI30133
I3166
sI128438
I13626
sI30138
I3167
sI30141
I3168
sI30143
I3169
sI62914
I6641
sI30148
I3170
sI128456
I13627
sI30155
I3171
sI95693
I10150
sI62929
I6642
sI128467
I13629
sI95702
I10151
sI30169
I3172
sI128474
I13630
sI62941
I6643
sI62944
I6644
sI30177
I3173
sI30178
I3174
sI62947
I6645
sI86950
I9229
sI62951
I6646
sI128490
I13631
sI30188
I3175
sI128494
I13633
sI30192
I3176
sI128499
I13634
sI30197
I3177
sI95734
I10152
sI30201
I3178
sI95741
I10154
sI30206
I3179
sI130645
I13862
sI30211
I3180
sI95750
I10156
sI95751
I10157
sI128520
I13636
sI128521
I13637
sI30218
I3181
sI62991
I6649
sI95761
I10159
sI30226
I3182
sI95763
I10160
sI30228
I3183
sI62999
I6650
sI30234
I3184
sI63004
I6651
sI14604
I1503
sI63006
I6653
sI63008
I6654
sI128548
I13638
sI30246
I3185
sI128551
I13639
sI63017
I6655
sI128557
I13640
sI128560
I13641
sI115576
I12286
sI54195
I5753
sI108809
I11569
sI103348
I10959
sI30266
I3186
sI128574
I13642
sI30273
I3187
sI30275
I3188
sI63049
I6656
sI30284
I3189
sI128589
I13644
sI76045
I8073
sI130659
I13864
sI125198
I13275
sI95831
I10162
sI103354
I10961
sI128606
I13645
sI128608
I13646
sI63073
I6657
sI63074
I6658
sI95844
I10163
sI128615
I13647
sI128616
I13648
sI63082
I6659
sI95851
I10164
sI30317
I3190
sI95854
I10165
sI95857
I10166
sI63092
I6660
sI30327
I3191
sI30333
I3192
sI95870
I10167
sI128639
I13651
sI95872
I10168
sI30337
I3193
sI63115
I6661
sI128654
I13652
sI63119
I6662
sI128656
I13653
sI30354
I3194
sI104668
I11105
sI128667
I13655
sI30368
I3195
sI95905
I10169
sI63139
I6663
sI119750
I12724
sI57750
I6111
sI30383
I3196
sI54216
I5756
sI95927
I10170
sI63161
I6665
sI30394
I3197
sI30395
I3198
sI128700
I13656
sI63167
I6666
sI30400
I3199
sI95937
I10171
sI63170
I6667
sI63174
I6668
sI95945
I10172
sI30410
I3200
sI95947
I10173
sI128718
I13657
sI43299
I4569
sI30422
I3201
sI128727
I13658
sI30427
I3202
sI30429
I3203
sI128734
I13659
sI95969
I10174
sI30434
I3204
sI99215
I10514
sI30442
I3205
sI30443
I3206
sI92456
I9809
sI63218
I6670
sI128756
I13661
sI63221
I6671
sI63225
I6672
sI92669
I9831
sI130701
I13869
sI97920
I10389
sI63240
I6673
sI96009
I10176
sI63242
I6674
sI96013
I10177
sI128782
I13663
sI63247
I6675
sI96016
I10178
sI30482
I3207
sI114307
I12156
sI63257
I6676
sI30491
I3208
sI96029
I10179
sI63262
I6677
sI63263
I6678
sI96032
I10180
sI128803
I13665
sI128804
I13666
sI128812
I13667
sI96046
I10181
sI54237
I5758
sI96052
I10182
sI30519
I3209
sI63288
I6680
sI30527
I3210
sI30528
I3211
sI63299
I6681
sI128837
I13671
sI30534
I3212
sI30535
I3213
sI30536
I3214
sI128843
I13672
sI30541
I3215
sI30542
I3216
sI81549
I8650
sI128848
I13673
sI63313
I6682
sI128850
I13674
sI96084
I10184
sI96092
I10185
sI30558
I3217
sI128865
I13676
sI30562
I3218
sI65169
I6879
sI128876
I13678
sI30574
I3219
sI92477
I9812
sI109040
I11591
sI63350
I6683
sI128887
I13679
sI30586
I3220
sI30588
I3221
sI119786
I12726
sI96127
I10188
sI63361
I6685
sI30595
I3222
sI30596
I3223
sI63365
I6686
sI63367
I6687
sI96137
I10189
sI30602
I3224
sI128907
I13681
sI63372
I6688
sI30608
I3225
sI128915
I13682
sI63384
I6690
sI128921
I13683
sI96159
I10190
sI128932
I13684
sI30629
I3226
sI128935
I13685
sI63402
I6691
sI128939
I13686
sI63404
I6692
sI128942
I13687
sI63410
I6693
sI16030
I1651
sI63417
I6694
sI30650
I3227
sI30651
I3228
sI63422
I6695
sI103413
I10967
sI30657
I3229
sI128963
I13688
sI30660
I3230
sI30661
I3231
sI96199
I10191
sI63432
I6696
sI63434
I6697
sI30668
I3232
sI128975
I13690
sI76110
I8080
sI30678
I3233
sI30682
I3234
sI63453
I6698
sI30687
I3235
sI96225
I10192
sI63458
I6699
sI30695
I3236
sI63465
I6700
sI129003
I13692
sI63472
I6701
sI129010
I13693
sI30707
I3237
sI63476
I6702
sI70654
I7483
sI96246
I10193
sI30711
I3238
sI63486
I6703
sI96255
I10194
sI96258
I10195
sI63494
I6704
sI129031
I13695
sI30729
I3239
sI119235
I12675
sI75220
I7984
sI129041
I13696
sI96274
I10196
sI63507
I6706
sI30743
I3240
sI129048
I13697
sI63513
I6708
sI30748
I3241
sI63518
I6709
sI63519
I6710
sI129056
I13698
sI63521
I6711
sI30755
I3242
sI30757
I3243
sI63528
I6712
sI116684
I12419
sI129069
I13699
sI92509
I9815
sI63536
I6713
sI70664
I7484
sI96309
I10198
sI63548
I6714
sI63550
I6715
sI30783
I3244
sI63552
I6716
sI76128
I8083
sI96322
I10200
sI96325
I10201
sI96327
I10202
sI30793
I3245
sI30794
I3246
sI129100
I13700
sI30804
I3247
sI30806
I3248
sI97977
I10396
sI96344
I10203
sI96347
I10204
sI30813
I3249
sI63587
I6718
sI63590
I6719
sI129128
I13701
sI96361
I10207
sI129141
I13702
sI30839
I3250
sI30840
I3251
sI59754
I6322
sI129151
I13703
sI63617
I6720
sI30850
I3252
sI108907
I11574
sI63620
I6721
sI103446
I10972
sI30861
I3253
sI30865
I3254
sI110627
I11757
sI30867
I3255
sI121052
I12862
sI129174
I13705
sI96407
I10209
sI96408
I10210
sI129178
I13708
sI96412
I10211
sI63647
I6722
sI100321
I10627
sI30884
I3256
sI96421
I10212
sI63654
I6723
sI96423
I10213
sI129192
I13710
sI96426
I10214
sI96429
I10215
sI30894
I3257
sI5149
I546
sI96432
I10216
sI129201
I13712
sI129208
I13713
sI127600
I13548
sI114819
I12197
sI30911
I3258
sI63681
I6726
sI96453
I10217
sI30918
I3259
sI30920
I3260
sI63690
I6727
sI92535
I9816
sI129230
I13714
sI129231
I13715
sI129233
I13716
sI129234
I13717
sI30935
I3261
sI96472
I10218
sI30938
I3262
sI81615
I8660
sI30943
I3263
sI96481
I10220
sI63718
I6728
sI63724
I6729
sI30957
I3264
sI96497
I10222
sI96498
I10223
sI96499
I10224
sI96501
I10225
sI96503
I10226
sI63737
I6730
sI30976
I3265
sI30977
I3266
sI81775
I8681
sI130774
I13875
sI63751
I6731
sI30984
I3267
sI130775
I13876
sI129292
I13719
sI30989
I3268
sI129296
I13720
sI129299
I13721
sI63765
I6733
sI96534
I10227
sI30999
I3269
sI129304
I13722
sI100325
I10628
sI129309
I13724
sI31006
I3270
sI63778
I6734
sI31012
I3271
sI125318
I13293
sI96553
I10229
sI96557
I10230
sI129327
I13726
sI63794
I6735
sI31033
I3272
sI63802
I6736
sI31035
I3273
sI96576
I10231
sI96577
I10232
sI31043
I3274
sI31044
I3275
sI63813
I6738
sI96588
I10233
sI63822
I6739
sI31055
I3276
sI96595
I10234
sI92558
I9819
sI96599
I10235
sI82869
I8796
sI96608
I10236
sI96610
I10237
sI96613
I10238
sI96614
I10239
sI96615
I10240
sI31084
I3277
sI129390
I13730
sI129395
I13731
sI129400
I13732
sI129402
I13733
sI63868
I6740
sI31102
I3278
sI96639
I10241
sI31105
I3279
sI63874
I6741
sI63875
I6742
sI31108
I3280
sI63878
I6744
sI70721
I7489
sI96648
I10242
sI31113
I3281
sI63882
I6745
sI129419
I13734
sI63884
I6746
sI63887
I6747
sI67595
I7157
sI127659
I13553
sI31123
I3282
sI63892
I6748
sI31128
I3283
sI31130
I3284
sI114415
I12164
sI31133
I3285
sI31136
I3286
sI31137
I3287
sI31146
I3288
sI63919
I6749
sI125426
I13303
sI96691
I10244
sI63926
I6750
sI129464
I13736
sI63930
I6751
sI31167
I3289
sI96707
I10245
sI129476
I13737
sI129478
I13738
sI96716
I10246
sI63950
I6752
sI129487
I13739
sI63953
I6753
sI96722
I10247
sI99240
I10518
sI10660
I1109
sI65274
I6890
sI31199
I3290
sI129504
I13742
sI96739
I10248
sI129509
I13743
sI63974
I6754
sI129513
I13744
sI63978
I6755
sI129519
I13745
sI63984
I6756
sI63988
I6757
sI63990
I6758
sI31224
I3291
sI31227
I3292
sI63996
I6760
sI125354
I13298
sI31232
I3293
sI31233
I3294
sI96770
I10251
sI129539
I13748
sI31239
I3295
sI31240
I3296
sI96778
I10252
sI129547
I13750
sI129549
I13751
sI96784
I10253
sI96786
I10254
sI31251
I3297
sI64022
I6761
sI16132
I1666
sI119974
I12739
sI31264
I3298
sI96801
I10255
sI64035
I6762
sI31268
I3299
sI31269
I3300
sI129574
I13752
sI96807
I10256
sI64041
I6764
sI64042
I6765
sI31282
I3301
sI96820
I10257
sI31292
I3302
sI92597
I9823
sI96832
I10258
sI96833
I10259
sI96837
I10260
sI96838
I10261
sI5217
I553
sI96840
I10262
sI31306
I3303
sI31307
I3304
sI31308
I3305
sI31310
I3306
sI96852
I10263
sI108985
I11585
sI64089
I6766
sI64091
I6767
sI96863
I10264
sI31328
I3307
sI31331
I3308
sI31337
I3309
sI96875
I10265
sI129646
I13755
sI64112
I6768
sI96883
I10267
sI96884
I10268
sI76369
I8103
sI129659
I13757
sI96896
I10269
sI96897
I10270
sI96898
I10271
sI31363
I3310
sI129668
I13759
sI98070
I10405
sI64135
I6769
sI87148
I9247
sI129674
I13761
sI129676
I13762
sI96911
I10272
sI31379
I3311
sI129684
I13763
sI64150
I6770
sI129688
I13764
sI129691
I13765
sI129692
I13766
sI31389
I3312
sI96927
I10273
sI123724
I13123
sI64163
I6771
sI31400
I3313
sI64179
I6772
sI94883
I10062
sI96950
I10275
sI96951
I10276
sI96952
I10277
sI64186
I6773
sI96955
I10278
sI64188
I6774
sI96957
I10279
sI31426
I3314
sI96965
I10280
sI64200
I6775
sI31437
I3315
sI76237
I8091
sI96976
I10282
sI96982
I10283
sI129751
I13771
sI70778
I7500
sI96991
I10284
sI81791
I8684
sI129765
I13772
sI64230
I6776
sI64232
I6777
sI31466
I3316
sI65319
I6892
sI97006
I10286
sI31473
I3317
sI97010
I10287
sI97013
I10288
sI31479
I3318
sI129784
I13774
sI112602
I11967
sI97022
I10289
sI129791
I13775
sI129792
I13776
sI129794
I13777
sI31491
I3319
sI31494
I3320
sI103553
I10979
sI97033
I10291
sI31502
I3321
sI129807
I13778
sI64276
I6781
sI64277
I6782
sI31510
I3322
sI103556
I10980
sI64284
I6783
sI97053
I10292
sI129823
I13781
sI97056
I10293
sI129830
I13782
sI31527
I3323
sI129837
I13783
sI109021
I11590
sI103560
I10983
sI64306
I6784
sI31542
I3324
sI54409
I5767
sI16180
I1672
sI31546
I3325
sI64315
I6786
sI97084
I10294
sI64319
I6787
sI129856
I13784
sI64323
I6788
sI79612
I8447
sI31559
I3326
sI64329
I6789
sI97102
I10296
sI64335
I6790
sI64338
I6791
sI64341
I6792
sI129880
I13785
sI129881
I13786
sI129882
I13787
sI129884
I13788
sI129887
I13789
sI31589
I3327
sI119953
I12737
sI129896
I13790
sI114492
I12169
sI110165
I11702
sI64368
I6793
sI129905
I13792
sI103571
I10985
sI64372
I6794
sI64373
I6795
sI70804
I7504
sI97147
I10298
sI31615
I3328
sI64385
I6796
sI31618
I3329
sI129924
I13794
sI64397
I6797
sI98115
I10411
sI43502
I4592
sI97174
I10299
sI64407
I6798
sI31640
I3330
sI31641
I3331
sI31643
I3332
sI97182
I10301
sI64416
I6800
sI10736
I1117
sI97187
I10302
sI94891
I10065
sI31657
I3333
sI31659
I3334
sI64428
I6801
sI31661
I3335
sI64433
I6802
sI64441
I6803
sI97214
I10304
sI129983
I13796
sI31683
I3336
sI97223
I10305
sI64456
I6804
sI97225
I10306
sI64459
I6805
sI97228
I10307
sI75252
I7987
sI64463
I6806
sI64464
I6807
sI125432
I13305
sI97234
I10308
sI97236
I10309
sI97237
I10310
sI97239
I10311
sI64474
I6808
sI130018
I13798
sI130020
I13799
sI64485
I6809
sI114513
I12172
sI31721
I3337
sI97259
I10312
sI64495
I6810
sI97264
I10313
sI31729
I3338
sI64500
I6811
sI97270
I10314
sI130041
I13801
sI31740
I3339
sI64512
I6812
sI31751
I3340
sI64521
I6813
sI130059
I13802
sI31757
I3341
sI130062
I13803
sI64527
I6814
sI130064
I13804
sI64531
I6815
sI97301
I10316
sI130073
I13806
sI130077
I13807
sI97310
I10317
sI97312
I10318
sI31778
I3342
sI64547
I6816
sI130084
I13808
sI31781
I3343
sI130086
I13809
sI31784
I3344
sI64555
I6818
sI16221
I1677
sI64560
I6819
sI38067
I4013
sI130106
I13810
sI119992
I12741
sI64576
I6820
sI31809
I3345
sI117810
I12515
sI31814
I3346
sI31817
I3347
sI97358
I10321
sI97361
I10322
sI97362
I10323
sI97366
I10324
sI97367
I10325
sI97371
I10326
sI97372
I10327
sI64606
I6821
sI31841
I3348
sI31842
I3349
sI64612
I6822
sI31846
I3350
sI31847
I3351
sI90533
I9601
sI130156
I13813
sI31856
I3352
sI64632
I6823
sI97402
I10328
sI130171
I13814
sI31868
I3353
sI97408
I10329
sI64643
I6824
sI64644
I6825
sI64646
I6826
sI65388
I6900
sI64651
I6827
sI31886
I3354
sI64656
I6828
sI130193
I13815
sI31891
I3355
sI97429
I10331
sI97432
I10332
sI31897
I3356
sI64667
I6829
sI130204
I13817
sI64670
I6830
sI87237
I9254
sI65392
I6902
sI130213
I13818
sI31916
I3357
sI130221
I13819
sI130222
I13820
sI87240
I9255
sI97458
I10335
sI97459
I10336
sI64692
I6832
sI130230
I13821
sI31932
I3358
sI97473
I10337
sI97474
I10338
sI97481
I10339
sI81783
I8683
sI64716
I6833
sI97486
I10340
sI64721
I6834
sI130258
I13823
sI31956
I3359
sI31959
I3360
sI97496
I10342
sI76324
I8100
sI64730
I6835
sI120015
I12743
sI97500
I10344
sI31965
I3361
sI31966
I3362
sI130274
I13824
sI97510
I10345
sI70865
I7513
sI31976
I3363
sI64747
I6836
sI97522
I10346
sI31987
I3364
sI85082
I9018
sI64758
I6837
sI97528
I10347
sI31995
I3365
sI109098
I11595
sI31998
I3366
sI32000
I3367
sI130305
I13826
sI97538
I10349
sI97541
I10350
sI130313
I13827
sI32010
I3368
sI64780
I6840
sI32013
I3369
sI32014
I3370
sI64786
I6842
sI97557
I10352
sI103641
I10991
sI130332
I13828
sI32029
I3371
sI64802
I6843
sI97571
I10353
sI97572
I10354
sI32039
I3372
sI64814
I6844
sI64815
I6845
sI16264
I1685
sI130355
I13829
sI97588
I10355
sI64821
I6846
sI130359
I13830
sI64824
I6847
sI97594
I10357
sI120031
I12746
sI32063
I3373
sI91213
I9675
sI97087
I10295
sI64835
I6848
sI86023
I9127
sI32069
I3374
sI64839
I6849
sI97610
I10359
sI64843
I6850
sI64847
I6851
sI64848
I6852
sI100361
I10633
sI97621
I10360
sI32087
I3375
sI103652
I10993
sI97628
I10361
sI114345
I12160
sI65424
I6906
sI32098
I3376
sI130409
I13833
sI64882
I6853
sI130419
I13834
sI32119
I3377
sI32120
I3378
sI130427
I13835
sI130428
I13836
sI64896
I6854
sI32129
I3379
sI32132
I3380
sI32136
I3381
sI130441
I13837
sI32138
I3382
sI92738
I9834
sI32144
I3383
sI120046
I12748
sI32152
I3384
sI97690
I10364
sI97691
I10365
sI81818
I8687
sI79632
I8451
sI32161
I3385
sI64930
I6855
sI125510
I13316
sI114588
I12181
sI130476
I13840
sI130481
I13841
sI32178
I3386
sI98206
I10416
sI32183
I3387
sI130488
I13842
sI130489
I13843
sI64957
I6856
sI94269
I9998
sI97727
I10367
sI64960
I6857
sI97732
I10368
sI32197
I3388
sI32203
I3389
sI32208
I3390
sI130513
I13846
sI64978
I6858
sI97748
I10369
sI32213
I3391
sI32216
I3392
sI32217
I3393
sI130523
I13847
sI98213
I10418
sI32226
I3394
sI130531
I13848
sI97765
I10371
sI43601
I4602
sI97772
I10372
sI130543
I13849
sI130544
I13850
sI130546
I13851
sI130547
I13852
sI32244
I3395
sI130552
I13853
sI97790
I10373
sI65024
I6859
sI129503
I13741
sI130564
I13854
sI103681
I10996
sI130569
I13855
sI32266
I3396
sI124372
I13190
sI130573
I13856
sI65038
I6860
sI98221
I10419
sI65040
I6861
sI65043
I6862
sI32276
I3397
sI65045
I6863
sI121099
I12871
sI97819
I10374
sI97821
I10375
sI130592
I13857
sI65057
I6864
sI117826
I12516
sI32298
I3398
sI87303
I9263
sI65069
I6865
sI32302
I3399
sI97840
I10376
sI97841
I10377
sI130612
I13858
sI70921
I7520
sI65080
I6866
sI65083
I6867
sI97854
I10378
sI32319
I3400
sI97856
I10379
sI32321
I3401
sI97862
I10380
sI65096
I6869
sI130636
I13860
sI65103
I6870
sI32336
I3402
sI97877
I10382
sI97879
I10383
sI32344
I3403
sI32348
I3404
sI97887
I10384
sI97888
I10385
sI32355
I3405
sI93179
I9882
sI97895
I10386
sI130666
I13865
sI109159
I11600
sI65133
I6871
sI130670
I13866
sI97903
I10387
sI97912
I10388
sI65145
I6872
sI65148
I6873
sI65149
I6874
sI130686
I13868
sI65152
I6875
sI65155
I6876
sI65163
I6877
sI65165
I6878
sI32399
I3406
sI32401
I3407
sI97938
I10390
sI32405
I3408
sI65174
I6880
sI92783
I9839
sI76400
I8110
sI97954
I10391
sI130727
I13870
sI97960
I10392
sI97962
I10393
sI113466
I12075
sI97965
I10394
sI96008
I10175
sI97967
I10395
sI65200
I6881
sI32435
I3409
sI127651
I13552
sI65206
I6882
sI92788
I9840
sI32444
I3410
sI65215
I6883
sI130752
I13872
sI32449
I3411
sI65220
I6884
sI130762
I13873
sI109175
I11604
sI65228
I6885
sI130766
I13874
sI32464
I3412
sI98003
I10397
sI32470
I3413
sI98007
I10398
sI130778
I13877
sI130782
I13878
sI98017
I10399
sI65251
I6886
sI65256
I6887
sI98025
I10400
sI54567
I5780
sI32492
I3414
sI130798
I13879
sI130799
I13880
sI32496
I3415
sI130801
I13881
sI65269
I6888
sI65272
I6889
sI98041
I10401
sI32506
I3416
sI32507
I3417
sI32508
I3418
sI32510
I3419
sI32511
I3420
sI32512
I3421
sI32513
I3422
sI98050
I10403
sI32517
I3423
sI92801
I9842
sI128096
I13591
sI130828
I13882
sI65294
I6891
sI130831
I13883
sI98067
I10404
sI32534
I3424
sI74189
I7855
sI76421
I8114
sI130848
I13884
sI130850
I13885
sI54577
I5782
sI130857
I13886
sI98091
I10406
sI65325
I6893
sI32558
I3425
sI65328
I6894
sI130868
I13887
sI32566
I3426
sI98105
I10408
sI106924
I11359
sI109194
I11606
sI32574
I3427
sI98111
I10409
sI98113
I10410
sI32579
I3428
sI32581
I3429
sI65351
I6895
sI109196
I11607
sI65358
I6896
sI87352
I9267
sI65365
I6897
sI98134
I10412
sI65370
I6898
sI32604
I3430
sI65373
I6899
sI32613
I3431
sI125585
I13325
sI70972
I7526
sI81895
I8693
sI32620
I3432
sI65389
I6901
sI32622
I3433
sI32624
I3434
sI98161
I10413
sI65394
I6903
sI65395
I6904
sI32633
I3435
sI32644
I3436
sI122423
I13010
sI65419
I6905
sI32652
I3437
sI32656
I3438
sI98196
I10414
sI81902
I8696
sI65431
I6907
sI65432
I6908
sI98202
I10415
sI110177
I11704
sI65438
I6909
sI98209
I10417
sI87366
I9269
sI65446
I6910
sI120241
I12773
sI32685
I3439
sI65461
I6911
sI65463
I6912
sI129606
I13754
sI113475
I12076
sI32699
I3440
sI98236
I10420
sI65525
I6922
sI65472
I6913
sI65474
I6914
sI65475
I6915
sI65526
I6923
sI98246
I10421
sI65479
I6916
sI98249
I10422
sI94491
I10023
sI98253
I10423
sI65489
I6917
sI125603
I13329
sI65500
I6918
sI65503
I6919
sI98272
I10424
sI98276
I10425
sI65511
I6920
sI98280
I10426
sI32745
I3441
sI32747
I3442
sI65516
I6921
sI70994
I7527
sI98287
I10427
sI114568
I12176
sI32757
I3443
sI32758
I3444
sI32761
I3445
sI32764
I3446
sI111295
I11822
s.